(lp0
(S'-BfOwq5-_opqlbSWPTdb6w'
p1
I2
S"the location is strange, you definitely need to know where you're going to find it."
p2
tp3
a(g1
I13
S'the eggplant and lettuce wraps were awesome, and the lo mein was fairly predictable.'
p4
tp5
a(g1
I15
S'the service was a little slow, but not enough to make us feel neglected; just to dine at a relaxed pace.'
p6
tp7
a(g1
I16
S"everyone seemed very friendly and grateful that we'd stopped in."
p8
tp9
a(g1
I17
S"we mentioned we'd heard of them through yelp, and he laughed and said that he's already got a group of yelp regulars."
p10
tp11
a(g1
I21
S'this place is definitely worth a try.'
p12
tp13
a(S'-JJyBUL-UMi5B8Kx0tcMJQ'
p14
I0
S'they do a great job even if sitting at the bar.'
p15
tp16
a(g14
I1
S'solid and stable menu and super consistent.'
p17
tp18
a(g14
I3
S'awesome'
p19
tp20
a(S'-JmrSEYFkFZFBR3FmPWDMw'
p21
I0
S"it does not inspire confidence when your bar tendar has to look up on his phone the most basic of drinks, not complicated high ball drinks i'm talking white russians and manhattans, service was slow and food was not stand out, i could say these things could be attributed to growing pains but we wont be back to find out."
p22
tp23
a(S'-Kg-uDqum7w8vwLtaYKdEg'
p24
I0
S'good food, good service, good brew, and a very low-key place.'
p25
tp26
a(g24
I1
S'had lunch with some friends and family recently and i would really recommend the chicken pot pie.'
p27
tp28
a(g24
I2
S'it was very tasty.'
p29
tp30
a(S'-Kg-uDqum7w8vwLtaYKdEg'
p31
I3
S'the irish lamb stew was also pretty good, but the rueben sandwich was just average.'
p32
tp33
a(g31
I4
S'after a couple of pints of guinness everything was alright with the world.'
p34
tp35
a(g31
I5
S'we would all go back because it was our kind of casual place.'
p36
tp37
a(S'-Oazg8eredExg722SQuQqg'
p38
I0
S'i have four words for this place: yum, yum, yum and yummy!'
p39
tp40
a(g38
I2
S'the food was to die for!'
p41
tp42
a(g38
I3
S'i had the scotch beef which was amazing.'
p43
tp44
a(g38
I4
S'so tender, juicy, just yummy!'
p45
tp46
a(g38
I5
S'mashed potatoes were delish and so were the brussel sprouts.'
p47
tp48
a(g38
I6
S'the service was excellent.'
p49
tp50
a(g38
I10
S'did i say that the food was yummy?'
p51
tp52
a(g38
I11
S'that is an understatement!'
p53
tp54
a(S'-W0pEnhxUUZai1ra5NS5Vg'
p55
I0
S'we decided to try this place because of the amount of good stars and reviews......big mistake!'
p56
tp57
a(g55
I3
S'like someone else mentioned, the salsa was very bland.'
p58
tp59
a(g55
I5
S'it was almost as if they took the whole plate and put it in the oven to cook.'
p60
tp61
a(g55
I7
S'i had the chicken tacos and they were ok (nothing to brag about).'
p62
tp63
a(g55
I8
S"i also didn't like that you had to use cash instead of paying with any method of payment you wanted."
p64
tp65
a(g55
I9
S"the staff was pretty nice, but i won't ever return to this place."
p66
tp67
a(S'-XOiqy_b_N4RXiZ3M4Me3Q'
p68
I0
S'this review is geared specifically towards their lunch time fare.'
p69
tp70
a(g68
I2
S'i was pleasantly surprised to find it much to the liking of a subway but refined and truly fresher ingredients.'
p71
tp72
a(g68
I3
S"the service was ok, not really over excited to serve but i imagine that's because this place gets really packed so they stick to the business at hand."
p73
tp74
a(S'-XOiqy_b_N4RXiZ3M4Me3Q'
p75
I6
S"of course a couple other good things about this location is that if the weather is good there isn't a much better patio for eating then right there outside, out front of hearst tower."
p76
tp77
a(g75
I7
S'also they have a loyalty card which is always a good thing!'
p78
tp79
a(S'-XbyzlFdMh5e0ndOGwsmpA'
p80
I0
S'this steakhouse is a hidden secret, and is spectacular.'
p81
tp82
a(g80
I1
S'i would recommend this steakhouse to anyone wanting fine dining at reasonable prices.'
p83
tp84
a(g80
I2
S"this is not a stuffy stuck up location that treats you poorly if you don't order alcohol."
p85
tp86
a(g80
I3
S'we had an excellent meal with great service from steve wilson.'
p87
tp88
a(g80
I4
S'thank you for an excellent meal at reasonable prices.'
p89
tp90
a(g80
I5
S'the new york steak was excellent, as was the prime rib.'
p91
tp92
a(S'-YL5TqbHKvc3HgdHxHRouQ'
p93
I1
S'it is a must stop each and every time i am in charlotte.'
p94
tp95
a(g93
I4
S'last night, for example, the fish & chips was very disappointing.'
p96
tp97
a(g93
I6
S'the waitresses and bartenders are always friendly & first rate.'
p98
tp99
a(S'-YkjJlyx1-sG4C6x7Xy3Iw'
p100
I1
S'the dough covering was not thin but with firm and chewy texture.'
p101
tp102
a(g100
I2
S'the filling came to your bite with some surprisingly pleasant fragrance.'
p103
tp104
a(g100
I6
S'we had\\uff1a\nappetizers:\nchengdu clear noodles\\uff08\\u6210\\u90fd\\u51c9\\u7c89\\uff09\nscallion pancakes\\u3000\\uff08\\u8471\\u6cb9\\u997c\\uff09\n\nmain courses:\nbraised duck with scallion\\uff08\\u4eac\\u8471\\u6252\\u9e2d\\uff09\nfire pot with pork intestine and hot sauce\\uff08\\u5e72\\u9505\\u80a5\\u80a0\\uff09\nsteam fish with pickled peppers in hunan style (\\u8dfa\\u6912\\u5168\\u9c7c\\uff09\ncelery fried with dry tofu and peppers (\\u5c0f\\u6912\\u9999\\u5e72\\u7092\\u82b9\\u83dc\\uff09\n\nthe braised duck with scallion\\uff08\\u4eac\\u8471\\u6252\\u9e2d\\uff09 and the steam fish with pickled peppers in hunan style (\\u8dfa\\u6912\\u5168\\u9c7c\\uff09 were really the highlights.'
p105
tp106
a(g100
I7
S'the duck was tender with a source surprises you mouth full.'
p107
tp108
a(g100
I8
S'the fish was just so gentle cooked that you feel it softened your teeth and tongue.'
p109
tp110
a(g100
I9
S'our russian american friends have been exposed to some fine chinese cuisines both in chicago and china (mainland and hk) as well as fine cuisines everywhere so i will say gourmet tourists.'
p111
tp112
a(S'-_M3ZP6GMvz35CEjQcHQQw'
p113
I1
S'waitress was completely overwhelmed.'
p114
tp115
a(g113
I6
S"food isn't good either."
p116
tp117
a(g113
I8
S'i have never had a good experience here.'
p118
tp119
a(S'-aPQw2ICvSlslbFxS0XHSg'
p120
I0
S'not too shabby!'
p121
tp122
a(g120
I1
S"place looks awesome inside and out.. we've been here 3 times since it reopened."
p123
tp124
a(g120
I2
S'the food has been really good!'
p125
tp126
a(g120
I7
S'they were fantastic!'
p127
tp128
a(g120
I10
S'his burger was awesome, he mmmmed over the whole thing.'
p129
tp130
a(g120
I13
S'for dessert i had the mud pie semi fredo which apparently means half frozen and was as awesome as it sounds.'
p131
tp132
a(g120
I14
S'it was like mocha ice cream but lighter than ice cream with home made oreo crumbs.'
p133
tp134
a(g120
I16
S'it tasted just like the ice cream!'
p135
tp136
a(g120
I17
S'it was so cool and delicious, i kept stealing bites from him.'
p137
tp138
a(S'-aPQw2ICvSlslbFxS0XHSg'
p139
I20
S'i love the play on old fashioned desserts turning them into something new and exciting instead of the overplayed copout desserts\nservice was fantastic.'
p140
tp141
a(g139
I22
S'maybe some of the other folks on here went on an off night or may be one of those people who does nothing but complain (i read some other reviews posted by some negative nancies..) we thought it was great!'
p142
tp143
a(S'-bFcRZIvSm7SK4GpGyseRg'
p144
I5
S'service is great and food is very reasonably prices and delish.'
p145
tp146
a(g144
I6
S"you won't regret coming here!"
p147
tp148
a(S'-dzOO077c8oNaIMq1ap1kg'
p149
I2
S'the food is consistently good, and the people are great.'
p150
tp151
a(g149
I3
S'if looking for a bite in anthem,  you have to consider this place.'
p152
tp153
a(S'-qPsbOKM477FEtisABFACQ'
p154
I2
S"the crab was acceptable because i'm a sucker for the little guys, but if you're at all picky you should run away."
p155
tp156
a(S'-rQEwF8Aihan0GyGHJDF3g'
p157
I2
S"if it's warm out, rest assured that there is no better place to grab a bite when you're out on a sunny day."
p158
tp159
a(g157
I3
S'they serve mezze plates that come with a variety of freshly prepared salads, dips and warm pita bread alongside a selection of carefully prepared wraps and paninis, all made from local, organic produce.'
p160
tp161
a(g157
I4
S'the staff are always friendly, and alongside their lunch meals, all under a fiver, they have homemade cakes procured from a variety of local bakers, freshly ground zapatista coffee, an assortment of teas and organic fizzy drinks.'
p162
tp163
a(S'-rQEwF8Aihan0GyGHJDF3g'
p164
I5
S"if you're out with family, the cafe provides a mishmash of children's toys to play with, so you can lounge and enjoy your food and drink (or join them)."
p165
tp166
a(g164
I7
S"during summer nights, they've been known to show films on makeshift screens, sometimes to the accompaniment of live music."
p167
tp168
a(S'-tTNHK9PRS70_45MXoFgsw'
p169
I0
S'great service and nice atmosphere.'
p170
tp171
a(g169
I2
S'my meatloaf was excellent!'
p172
tp173
a(S'-veZHnFVbzm6KDgbTKu50w'
p174
I0
S'nice restaurant with a awesome view.'
p175
tp176
a(g174
I1
S'steak was cooked perfect and service was very good.'
p177
tp178
a(g174
I2
S'very pricey but we knew that ahead of time.'
p179
tp180
a(S'-vhkE3iRHP4PuVxx3D-o9g'
p181
I0
S'one of the 3 best steakhouses in the city.'
p182
tp183
a(g181
I3
S"good portion sizes, and the smells from other tables made me wonder what i'd missed!"
p184
tp185
a(g181
I4
S'our waiter was excellent, and they are very personable, with great stories to tell about the city.'
p186
tp187
a(g181
I6
S'it is a bit of a wait for the tremendous food, though.'
p188
tp189
a(g181
I8
S'the drinks were also excellent!'
p190
tp191
a(g181
I9
S"although it's a bit pricy, it's inline with other restaurants that don't have a view of this magnitude."
p192
tp193
a(S'-yqdZPKGfe5KZQT-plpC-Q'
p194
I0
S'this place was great on all of the above, service, food, and atmosphere.'
p195
tp196
a(g194
I1
S'the view is phenomenal.'
p197
tp198
a(g194
I3
S'the waiter we had was lovely!'
p199
tp200
a(g194
I4
S'very attentive and friendly!'
p201
tp202
a(g194
I6
S'everything was wonderful!'
p203
tp204
a(S'-yqdZPKGfe5KZQT-plpC-Q'
p205
I9
S"my steak was cooked perfect and we couldn't stop eating the mac n cheese!"
p206
tp207
a(S'-zShBEPM8A2HliiZ--KyYA'
p208
I7
S'speaking of the bar - the drinks were pretty weak.'
p209
tp210
a(g208
I11
S'the brisket was very tender and everything had good flavor.'
p211
tp212
a(S'-zuInteKzMGePM9eoWUfLg'
p213
I3
S'the food here was amazing !'
p214
tp215
a(g213
I4
S'the service was world class.'
p216
tp217
a(S'0-PJDm5vW9ZfHsF2mg_y6g'
p218
I4
S'i also really appreciate it when dining in a nice restaurant for a special occasion if the restaurant asks when making a reservation and if they at least mention it.'
p219
tp220
a(g218
I6
S'we had the artichoke leaves for a starter and i would say they were ok. nothing special, i probably would not order those again.'
p221
tp222
a(g218
I7
S'for the positives, the service was great.'
p223
tp224
a(g218
I8
S'the menu was creative and everything seemed appealing on the menu.'
p225
tp226
a(g218
I10
S'both were great, the himachi was amazing!'
p227
tp228
a(g218
I12
S'that was also amazing.'
p229
tp230
a(g218
I14
S'definitely would order the himachi crudo, both entrees, and the profiteroles again.'
p231
tp232
a(g218
I15
S'we will definitely be back to try more dishes!'
p233
tp234
a(S'05v3bRo4BiZMNRII_hJ0PA'
p235
I1
S'usually, they have pretty solid food, and have a great beer selection.'
p236
tp237
a(g235
I14
S'thank god for the good beers to drown out my disgust.'
p238
tp239
a(g235
I15
S'despite my anger at this, rira still has the best fish and chips in charlotte, and again, a wonderful beer selection.'
p240
tp241
a(g235
I16
S'just know that this one star rating only applies to the beef short ribs dish, and nothing else.'
p242
tp243
a(S'0EUwsoR8sKcXUcq2KKA-oQ'
p244
I0
S'we love steak houses and are willing to pay top $$$ for a great steak!'
p245
tp246
a(g244
I1
S'this place has a great view from las vegas and ok service, ..... but....\nthe aged 20oz steaks were tough and totally bland!'
p247
tp248
a(g244
I2
S'we had better steaks at the black bear diner for much much less!'
p249
tp250
a(g244
I3
S'the servers think they are doing you a favor and it seems like they all think what a sucker of a customer is coming in!'
p251
tp252
a(g244
I4
S'the side dishes had no flavor!'
p253
tp254
a(g244
I8
S"don't waist your time and money, this place needs chef robert irvine for a restaurant rescue and the present chef needs to go or chance his talents!"
p255
tp256
a(g244
I11
S'what a waist of time and money!'
p257
tp258
a(g244
I12
S'sad sad sad !'
p259
tp260
a(S'0NDTXGpOTN_CdgLKDwbwHA'
p261
I0
S'great wings, three different styles and a myriad of different sauces and flavors.'
p262
tp263
a(g261
I1
S"food comes out quickly, even if it's busy and a rather complicated order when our son's baseball team comes by for after tournament festivities."
p264
tp265
a(g261
I2
S'they have a great beer selection, plenty of tvs to watch whatever event(s) are going on.'
p266
tp267
a(S'0OZoT5C44iWEQTMNnVkROg'
p268
I1
S'still as delicious as i remember and classics are still on the menu.'
p269
tp270
a(g268
I2
S'started the night with the uptown, a great drink if you like whiskey.'
p271
tp272
a(g268
I4
S'the caesar salad was delicious but typical of what you would expect, which is exactly what i wanted.'
p273
tp274
a(g268
I5
S'my husband had the carpaccio which was plated amazingly and tasted delicious.'
p275
tp276
a(g268
I6
S'for the main course i had the pan-roasted chicken, the skin had the perfect crisp yet the chicken was so moist.'
p277
tp278
a(g268
I7
S'i would highly recommend ordering it.'
p279
tp280
a(g268
I10
S'both these desserts were wonderful.'
p281
tp282
a(g268
I12
S'the staff were very attentive and really took great care of us.'
p283
tp284
a(S'0PQ8E0vCdw4ZHJmSNpcENA'
p285
I0
S"if you haven't been here in a year or 2 it's a must."
p286
tp287
a(g285
I1
S'beautiful place and awesome menu.'
p288
tp289
a(g285
I2
S'prime rib and half price wine on wednesday is awesome'
p290
tp291
a(S'0S23kqkADnt0WuzgxHlqfw'
p292
I2
S'good food at reasonable prices.'
p293
tp294
a(g292
I3
S'also very clean.'
p295
tp296
a(S'0VAhNdU2VBOD7jVNhSeQ-g'
p297
I0
S'the pizza is great.'
p298
tp299
a(g297
I1
S'late hours service is terribly slow.'
p300
tp301
a(g297
I2
S'also, dirty cellphones are on the food prep surface, and they scoop their ice without a scooper.'
p302
tp303
a(S'0Y5_6CejQ8ospiDcTFX3Bg'
p304
I0
S'there is  a freakin nail in their bread.'
p305
tp306
a(g304
I2
S'never eat in this place ever!!!!'
p307
tp308
a(g304
I3
S'especially the one in meadows mall.'
p309
tp310
a(S'0fpoZOoduzYVq8BLtAhxdg'
p311
I1
S'abnormally high 4 stars from me, but today at lunch it was just amazing.'
p312
tp313
a(g311
I2
S'the weather was right, i was in a good mood and hungry.'
p314
tp315
a(g311
I4
S'all tasted great and it was unfair because i got my favorite meat and cheese with perfect other stuff in sandwich.'
p316
tp317
a(g311
I5
S'little pricey came to a little over seven bones, but whatevs.'
p318
tp319
a(S'0rCeOpNX9kAyCyrBepgLpw'
p320
I2
S'they are fast and friendly.'
p321
tp322
a(g320
I3
S'plus they can make it spicy for you.'
p323
tp324
a(g320
I4
S'orange chicken is the kids favorite.'
p325
tp326
a(S'0s4cFr02v1OuIapNPvWmRg'
p327
I1
S'the food is consistently good, the service is always friendly and fast , and the prices are reasonable.'
p328
tp329
a(g327
I3
S'brown rice is always can option and their brewed ice teas are yummy.'
p330
tp331
a(S'0t0kkFIPvJbp2HGjvLvwKg'
p332
I3
S"it's funny though, as now that the az pink pony has been completely renovated and re-opened under a new owner, i'm just now learning about all of the history to this more than 60-year-old landmark restaurant!"
p333
tp334
a(g332
I5
S'all of the staff members we encountered during our dinner were friendly and attentive.'
p335
tp336
a(g332
I6
S'our server, beth, was sweet and knowledgeable about the menu.'
p337
tp338
a(g332
I9
S'also, if you go for the burger, you have to request it with the fried egg... the menu makes it seem like it will come with the egg automatically (and our did not).'
p339
tp340
a(g332
I10
S'the burger was still awesome by the way, even without the egg!'
p341
tp342
a(g332
I11
S'the rest of the menu looks tasty too... from an 18 oz.'
p343
tp344
a(g332
I12
S'"niman ranch" bone-in ribeye to the salmon, scallops, grouper, and turkey pot pie and more... there really is something for everyone!'
p345
tp346
a(g332
I15
S'lucky for us though, the night we were there, we also were able to have some of a special grand re-opening sheet cake... \n\nthe redesign of the restaurant has a clean and classy feel to it.'
p347
tp348
a(g332
I17
S"needless to say, our evening was great from start to finish, so i say giddy up... if you're looking for somewhere new to check-out, you can't go wrong with the (new version of) the pink pony!"
p349
tp350
a(S'0tn1FR6X5PqB_q8R30WJAA'
p351
I1
S'the food was competently prepared and my rib-eye was good.'
p352
tp353
a(g351
I2
S'the service was bad, the waiter forgot simple utensils, and after waiting 5 minutes for him to bring me a spoon, i had to ask someone else.'
p354
tp355
a(g351
I3
S'btw, the place was not very busy.'
p356
tp357
a(g351
I4
S'food was expensive so i had hoped for better.'
p358
tp359
a(g351
I5
S'i had a much better steak dinner at "mon ami gabi" for far less money than i spent here.'
p360
tp361
a(S'12QWWU4c75qqjarb7htmVA'
p362
I0
S'amazing steakhouse at the top of the rio where there is a nightclub with a gorgeous view of the strip.'
p363
tp364
a(S'12bupTNyycNPXhf9JXXyzw'
p365
I1
S'food quality, service, ambience, amazing!'
p366
tp367
a(g365
I3
S'definitely try the spaghetti & meatballs as well as the mac n cheese, and even the pizzas are to die for.'
p368
tp369
a(g365
I4
S'and the burger too!'
p370
tp371
a(g365
I5
S'you really cant go wrong here.'
p372
tp373
a(g365
I6
S'warning the deserts here are huge (yet amazing).'
p374
tp375
a(S'13VXiLU1IWao3MU-Fp3h6Q'
p376
I10
S'nasty nasty nasty.'
p377
tp378
a(S'14rg-QqMErTn1Xq-cPymKw'
p379
I0
S"wow, tarbell's is unforgettable and will definitely be a go-to for special occasion dinners."
p380
tp381
a(g379
I2
S'our server, nathan, knew just when to stop by, was able to answer all our questions, and was not pushy at all.'
p382
tp383
a(g379
I3
S'the dinner was perfectly timed out, and he never made me feel rushed to finish a course.'
p384
tp385
a(g379
I4
S"....seriously, what an experience, while we weren't celebrating anything special, tarbell's truly provided us with a remarkable experience."
p386
tp387
a(S'14rg-QqMErTn1Xq-cPymKw'
p388
I9
S"the seafood risotto was good, but a little too overwhelmed with the taste of salmon; but the tar's scotch beef, and the house made ribbon pasta with chicken fennel sausage were phenomenal; you can taste quality in every bite... yum!"
p389
tp390
a(g388
I10
S'and lastly, of course i always save room for dessert, i was stuck between the vanilla cheesecake with rosemary carmel, and the warm chocolate cake, both were wonderful!'
p391
tp392
a(g388
I11
S"a genuine thank you to tarbell's, and nathan, for making this dinner such a fantastic experience."
p393
tp394
a(g388
I12
S"dining is one of my favorite ways to explore the city, and i'm so glad to have made a last minute decision to enjoy my thursday night at your restaurant."
p395
tp396
a(S'183hgO5dwRSVb6n7IqabUw'
p397
I3
S'when you first order a "regular" sub & see the bread they whip out you think, "wow, that\'s nothing special" (in comparison to other places)...but that\'s before they start piling on the meat and toppings!'
p398
tp399
a(g397
I4
S"the good folks at lenny's do not skimp on those."
p400
tp401
a(g397
I9
S'basically the same thing you\'d pay at subway for miniscule toppings on a 6" sandwich.'
p402
tp403
a(g397
I10
S'lenny\'s reg sub is 7.5" and twice the size of subway toppings-wise, and their large is twice that at fifteen inches!'
p404
tp405
a(g397
I11
S'they also have a good selection of salads, as well as hot subs like philly cheesesteaks.'
p406
tp407
a(g397
I12
S'oh, and they also have these "grilled footlong hot dogs," but beware - they aren\'t your ordinary hot dogs, they\'re more like these enormous sausages & they\'re rather oily/greasy...not for the faint of heart (and the reason they\'re like five/six bucks or something like that).'
p408
tp409
a(g397
I13
S"so, in short, if you're in the area of this or any of the other lenny's, give'em a shot - you're sure to be in for a treat."
p410
tp411
a(S'1DAJEjLveTYhFLkrb4f2ZA'
p412
I2
S'service was severely lacking before, but has gotten better.'
p413
tp414
a(g412
I3
S'it was a two star restaurant before, now 3.5 - 4 stars.'
p415
tp416
a(g412
I4
S'shrimp is great.'
p417
tp418
a(g412
I5
S'medium spice is not that hot.'
p419
tp420
a(S'1EH_JXTXqWXm3jkg43iVOA'
p421
I0
S'food reviews are sometimes about timing but i stopped by with a friend for lunch.'
p422
tp423
a(g421
I4
S'i wanted to like it but the bread was very similar to subway, very light in flavor and not too good.'
p424
tp425
a(g421
I6
S'the ingredients were decent but when it comes to restaurants, or even fast food if you want to call it that, i want to leave wanting to come back.'
p426
tp427
a(g421
I8
S'edible and ok if i had to , but not only my "to go" list for sandwiches.'
p428
tp429
a(S'1G4QBXO1f-e1PXdPIvNsMw'
p430
I2
S'the place is hip and cool.'
p431
tp432
a(g430
I3
S'i ordered the turkey pot pie was the finest i have ever had .'
p433
tp434
a(g430
I4
S'great service too.'
p435
tp436
a(S'1LI3l0M1rZcSa2m28nr1WQ'
p437
I2
S'the service was very mediocre.'
p438
tp439
a(g437
I4
S'the loaded potato skins were delicious, though.'
p440
tp441
a(g437
I5
S'they only brought out one tinyyyyy thing of sour cream, which irritated me.'
p442
tp443
a(g437
I9
S"i wouldn't recommend this place at all."
p444
tp445
a(S'1LMr7zwScKODvYABPNTzbw'
p446
I0
S'this is a wonderful thai restaurant.'
p447
tp448
a(g446
I1
S'we had a great lunch at a very reasonable price.'
p449
tp450
a(g446
I2
S'the salad was fresh and crisp with a well balanced dressing.'
p451
tp452
a(g446
I3
S'my ginger seafood combo was spectacular, with scallops done perfectly tender.'
p453
tp454
a(g446
I4
S"julie's beef curry was very flavorful."
p455
tp456
a(S'1O8fyATaHaR5MGCNxljI9g'
p457
I1
S"you don't find this dish very often in italian restaurants because it's so labor intensive to make."
p458
tp459
a(g457
I3
S'our waiter, john, was super nice, helpful with choices and paid just the right amount of attention.'
p460
tp461
a(S'1_dzUDchJyPVCylfj7Yu8A'
p462
I2
S'and the onion soup was really good.'
p463
tp464
a(g462
I3
S'the only reason i gave it a 4 was only because they ran out of med rare!'
p465
tp466
a(S'1cdsYfIGpo_rYX_S_E77FA'
p467
I1
S'food was great, and the prices were decent, actually got a free cookie.'
p468
tp469
a(S'1dy9M9hzqKyjBOlPDdek8g'
p470
I1
S'never disappointed, never had a bad experience, good american food.'
p471
tp472
a(S'1sxYXd58qW9jTmcAN7on_A'
p473
I0
S'the food is pretty good.'
p474
tp475
a(g473
I1
S'pretty authentic.'
p476
tp477
a(g473
I3
S'this is the only chinese restaurant i have been to in phoenix that offers the real numbing spiciness.'
p478
tp479
a(g473
I5
S'the only thing is that their prices are a bit too pricy, for where they are, how "decorated" they are and their level of service.'
p480
tp481
a(S'1xLMUHf8e6DEE8nYHgQlwg'
p482
I0
S'great green chilli burro enchilada style...like traditional mexican food here 50 years ago--and you can get it in a mini version, which is a normal portion.'
p483
tp484
a(g482
I1
S'very disappointed in the ground beef taco--meat blah, and a preformed taco shell that tasted like the boxed ones from the grocery store.'
p485
tp486
a(S'1xLMUHf8e6DEE8nYHgQlwg'
p487
I3
S'mini cheese crisp was great ans shareable for 2.'
p488
tp489
a(S'1y4HtevVgOjAdHApD7gljw'
p490
I1
S'as far as food goes, not on my list but the service is great!'
p491
tp492
a(S'2-MkK2D7cNVbqCPTDMC5Nw'
p493
I2
S'the beef melted in your mouth.'
p494
tp495
a(g493
I4
S'although it was pricey the meal was delicious and it was worth it.'
p496
tp497
a(g493
I5
S'i also like that our server was very confident in her recommendations and was willing to tell us something was better than something else.'
p498
tp499
a(g493
I6
S"you often get servers that are willing to tell you what is good and what is not on the menu while i don't think this place would have anything that was bad it was nice to know what the house specialties were"
p500
tp501
a(S'2-SD2lS2u_LXu5wUxma3Lg'
p502
I3
S'shrimp in the cocktail were at least 2 days old, not fresh steamed at all, like "rubber".'
p503
tp504
a(g502
I4
S'pizza was "black" on the entire bottom, burnt and overdone, cheese was like bubblegum, by no means a high quality mozz.'
p505
tp506
a(g502
I5
S'the sausage on the pie was bland and nothing special.'
p507
tp508
a(g502
I6
S'what a shame, because they did a great job on the renovation.'
p509
tp510
a(S'222iWesn78uL7uKMTHtY_g'
p511
I1
S'the candy bacon salad is a must-have!'
p512
tp513
a(g511
I2
S'the chocolate mousse was like eating a dream.'
p514
tp515
a(S'22si6Ufpvh1qrjLaI5CiOQ'
p516
I5
S'the drinks are good too.'
p517
tp518
a(g516
I6
S"others i've gone with say the fresh fish dishes are excellent as well."
p519
tp520
a(S'253RGdUq1LDl_c469LjVuw'
p521
I1
S'all of their menu items are delicious, but i highly recommend the gaeng kari and the orange chicken lunch special.'
p522
tp523
a(g521
I2
S"i've never actually had thai food anywhere else, but i still feel confident saying they're the best!"
p524
tp525
a(S'26s6IlQcr6C-dacECQ_20Q'
p526
I0
S'food was not good.'
p527
tp528
a(g526
I1
S'wife said the chicken tacos tasted horrible.'
p529
tp530
a(g526
I2
S'cheese enchilada tasted like dirt.'
p531
tp532
a(g526
I3
S'the bean burrito was ok but i had them add sour cream and guacamole.'
p533
tp534
a(g526
I4
S'the prices were way too high for this low quality of food.'
p535
tp536
a(S'2DenvsteG7TlgC_GxYTF0Q'
p537
I0
S'was visiting from chicago and this place rivals any of the best irish pubs out there.'
p538
tp539
a(g537
I1
S'the ambiance is great, with the traditional wood paneling everywhere.'
p540
tp541
a(g537
I2
S'plenty of tvs for us to watch the games.'
p542
tp543
a(g537
I3
S"we came in for a late brunch and it's was so delicious."
p544
tp545
a(S'2DenvsteG7TlgC_GxYTF0Q'
p546
I6
S"if i ever happen to be in charlotte again, i won't move from that bar."
p547
tp548
a(g546
I7
S'haha better than epicenter!'
p549
tp550
a(S'2Fj0XKVdpjLTw0Of5Wj1LQ'
p551
I1
S'food was a 10+, service was outstanding.'
p552
tp553
a(g551
I2
S'had a great time, will definatley be back.'
p554
tp555
a(S'2JFxOFk-K1CQsyph2Inlvg'
p556
I1
S"today i was joined by robyn n. for lunch here & it didn't disappoint."
p557
tp558
a(g556
I3
S'i had a bowl of the cream of mushroom and one of the chili, & both were excellent.'
p559
tp560
a(g556
I4
S'next it was on to the salad bar, with lots of tasty things to put on your salad and to enjoy on the side, such as good cottage cheese.'
p561
tp562
a(g556
I5
S'over at the hot tables were a good number more things to enjoy, including numerous hot veggies, excellent fried chicken, saurkraut and sausage, fish, spaghetti with meat sauce and lamb roast with demi sauce!'
p563
tp564
a(g556
I6
S'desserts included very tasty soft ice cream, plenty of things to make it into a good sundae, plus a good variety of cakes, pies, cookies and so on.'
p565
tp566
a(g556
I7
S'this excellent buffet served up in their very comfortable, quiet (due to good acoustics) dining room is only $9.50 (srs.'
p567
tp568
a(S'2JvlqHmcTWK-Bv4A7sXeOA'
p569
I0
S'very disappointing.'
p570
tp571
a(g569
I3
S'the food was just so/so.'
p572
tp573
a(S'2LAMjZT0yB6lizf-ALspMw'
p574
I0
S"its really sad to hear john s. factor parking while rating the food at tarbell's."
p575
tp576
a(g574
I1
S'perhaps he should have spent an additional couple dollars to valet; and olive oil served w/ bread instead of butter isn\'t really as "fashionable" as it is traditional, esp at italian restaurants.'
p577
tp578
a(g574
I2
S'one of my all-time favorites there are the spaghetti and meatballs.'
p579
tp580
a(g574
I3
S"one of their signature dishes and probably some of the best i've had in town!"
p581
tp582
a(g574
I4
S'our service last night was outstanding....as usual!'
p583
tp584
a(g574
I5
S'the place is indeed small.'
p585
tp586
a(g574
I6
S'reservations on the weekend are necessary well in advance.'
p587
tp588
a(S'2LAMjZT0yB6lizf-ALspMw'
p589
I9
S'otherwise, the pasta dishes are especially fantastic and worth a small inconvenience.'
p590
tp591
a(S'2M2P9rDIyYiwXd1TnEXtcA'
p592
I2
S"basil's spicy pod thai  is to die for and its enough to feed two."
p593
tp594
a(g592
I3
S'great lounge with a solid wine selection.'
p595
tp596
a(S'2N53CeBKGkCHyG0bopY4cw'
p597
I2
S'great romantic setup,  the food was delicious.'
p598
tp599
a(S'2OOuuzyaPiDVuWn48jgZJw'
p600
I2
S'the butternut squash ravioli was delicious.'
p601
tp602
a(g600
I3
S"everything tasted fresh and unlike many restaurants that use butternut squash tarbell's let the squash shine through rather than ladening it with sugar or other sweeteners."
p603
tp604
a(g600
I4
S'the sauce was a perfect accompaniment and the cheese on top melded delightfully with the ravioli and cream sauce.'
p605
tp606
a(g600
I5
S'the sage leaf on top was a wonderful touch as well.'
p607
tp608
a(g600
I6
S'we asked the waiter to suggest a glass of wine and the wine he suggested went very well with the dish and was very enjoyable.'
p609
tp610
a(g600
I7
S'for dessert we had the chocolate cake which was very rich and wonderfully delicious.'
p611
tp612
a(g600
I8
S'the ice cream on top helped cut through the richness a bit - finishing it felt guilty.'
p613
tp614
a(g600
I9
S'the waiter was great.'
p615
tp616
a(g600
I10
S'overall it was a wonderful dinner.'
p617
tp618
a(S'2OuBglt6bmpHci2AlZF5Hw'
p619
I1
S"it's very small but really cozy and comfortable."
p620
tp621
a(S'2OuBglt6bmpHci2AlZF5Hw'
p622
I2
S'the place was immaculate.'
p623
tp624
a(g622
I4
S'on this trip i had the pad thai and it was excellent.'
p625
tp626
a(g622
I6
S'the lunch specials are a real bargain.'
p627
tp628
a(g622
I7
S'since thai food can be a bit on the spicy side i was very pleased to learn you could choose your level of "heat" from 1 to 5.  i like my asian food a bit spicy but my wife prefers mild:  dara thai lets you customize that level.'
p629
tp630
a(g622
I8
S"there aren't many really great places to eat in anthem (yet -- i still have hope) but this place is worth the visit."
p631
tp632
a(g622
I9
S'the service was also excellent.'
p633
tp634
a(S'2PJgwbN5eygvdJ5GzD-SWw'
p635
I2
S'i was pleasantly surprised that this restaurant is on the 50th floor of the hotel & had an amazing panoramic view over the strip & beyond.'
p636
tp637
a(g635
I4
S'service was provided by tony who was excellent - attentive, knowledgable, and helpful in offering suggestions.'
p638
tp639
a(g635
I6
S'for an entree i had the lamb chops and my friends had the scallops - while awaiting dinner tony offered us to take wine & go out on the deck to see the cityscape; the view was great!'
p640
tp641
a(g635
I8
S'dessert was chocolate cake for me - amazingly good as well!'
p642
tp643
a(g635
I9
S'service was exceptional; food was excellent; there is a night club upstairs & it started to flow into our dinner experience, so a minor ding for that, but overall would recommend and will likely come back.'
p644
tp645
a(S'2SL9lv92ePaP-ylwUAPPng'
p646
I1
S"it's a sub shop - no sub shop gets a perfect score."
p647
tp648
a(S'2bfoshJlkHgx9IFugJr3Bw'
p649
I1
S"i'd often stop in here before grocery shopping across the plaza to quench the munchies, shopping with the munchies is never a good idea."
p650
tp651
a(g649
I2
S'service is always prompt, while still being very personable.'
p652
tp653
a(g649
I5
S'the meat is sliced to order.'
p654
tp655
a(g649
I6
S'(not sitting between paper, pre-sliced, a la other sandwich shops) bread is baked fresh.'
p656
tp657
a(g649
I7
S"couldn't ask for more from a sandwich shop, other than slightly lower prices."
p658
tp659
a(S'2c1OVnZGrPWCYcDtGnNoQQ'
p660
I0
S'ive been all over the world \nand eaten in many fine and high dollar establishements \nand this the best steak and nice meaty scallops \ni have ever eaten \nworld class service \nand the best dang drinks ever \nin for a treat try the mules \ndont miss out on the baja style shrimp ceviche\ncant beat sitting and chatting with the owner and managnent \nsave room for the key lime pie'
p661
tp662
a(S'2d8tj8Z-RG19A3PBTEb8vg'
p663
I1
S'the food was always good quality and kitchen staff was awesome.'
p664
tp665
a(g663
I2
S'the selection of import beer was good and the bartenders could make up some crazy concoctions.'
p666
tp667
a(g663
I4
S"one hint: if you don't want to wait 30 minutes to get a drink from the bartender then snatch up a cocktail waitress and they'll get in bout 5 minutes."
p668
tp669
a(g663
I5
S"allow time for them to fight the crowd to and from the bar and you'll have your drink in no time."
p670
tp671
a(g663
I6
S'and yes - a tip is appreciated.'
p672
tp673
a(g663
I11
S"it's actually pretty impressive."
p674
tp675
a(g663
I13
S'and if you get a chance to dine outside on the patio take it!'
p676
tp677
a(g663
I14
S"it's always comfortable and has a seperate restroom out there which is nice since there's not an abundance of restrooms."
p678
tp679
a(S'2dMdwLZeJ6RrJ3Ng51P-rg'
p680
I0
S'a near perfect meal.'
p681
tp682
a(g680
I1
S'our waiter was a bit of a jerk.'
p683
tp684
a(g680
I2
S'the food and the chefs were great.'
p685
tp686
a(S'2f2l3Bglv_mNzRk3OMZ-Dg'
p687
I0
S"i'm on a mission to find a good chinese restaurant that is reasonably priced in chambana, and i was happy with south china restaurant."
p688
tp689
a(g687
I1
S'the good:\n-the steamed dumplings were delicious.'
p690
tp691
a(g687
I3
S'-the moo goo gai pan was also very good, i would definitely order it again as the dish has always been one of my favorites.'
p692
tp693
a(g687
I4
S'-my so ordered the shrimp lo mein and i stole a bite of the shrimp, and it had very good flavor, and he said that he enjoyed it.'
p694
tp695
a(g687
I7
S"the bad:\n-the service wasn't fantastic."
p696
tp697
a(g687
I8
S'sometimes a bit slow, but there was one waitress for the entire dining room of 10-15 tables, so it was completely understandable.'
p698
tp699
a(g687
I9
S'overall:\ni would definitely return, the food was very good, though i wish they delivered!'
p700
tp701
a(S'2jpxjYz-v11MvDsCs7Fz9A'
p702
I1
S'nice atmosphere inside and the wait staff very courtious.'
p703
tp704
a(g702
I3
S'the ribeye was very disappointing.'
p705
tp706
a(g702
I4
S'it was just ok. no seasonings or flavor.'
p707
tp708
a(g702
I5
S'just plain.'
p709
tp710
a(g702
I6
S'chicken parmesan was ok. we paid alot of money for an average meal.'
p711
tp712
a(g702
I7
S"don't mind paying for a good steak."
p713
tp714
a(S'2rKzAUZfJ9FvCkk5YQQqKw'
p715
I1
S'"incredible food!"'
p716
tp717
a(g715
I2
S'"friendly staff!"'
p718
tp719
a(g715
I7
S"upon walking into tarbell's, the hostess was incredibly friendly and welcoming and the atmosphere was warm and inviting while still being casual; my kind of place!"
p720
tp721
a(g715
I8
S'nathan was our waiter and he was awesome.'
p722
tp723
a(g715
I9
S'he was patient with both my husband and our friend jared as they went back and forth on what they wanted to order quite a few times.'
p724
tp725
a(g715
I10
S'he suggested a great bottle of wine for us also.'
p726
tp727
a(g715
I14
S'the salmon was a huge hit -- i think everyone at the table had order envy over it -- but i did share!'
p728
tp729
a(g715
I15
S'it was grilled to perfection, topped with a local molasses/lime/honey glaze and served on a crispy potato cake.'
p730
tp731
a(g715
I16
S'the carrot cake was good but not amazing.'
p732
tp733
a(g715
I19
S'this was a huge perk for everyone and much appreciated by our group.'
p734
tp735
a(g715
I20
S'two people at our table had the bolognese, but they said it was bland.'
p736
tp737
a(S'2rKzAUZfJ9FvCkk5YQQqKw'
p738
I22
S"while i wasn't completely enamored with everything, our overall tarbell's experience was a good one, and i definitely want to return to try more menu items in the future."
p739
tp740
a(S'3-qQnimhVeYHuzfXo1SqJw'
p741
I4
S"service was exceptional... i've never had a restaurant call me the next day asking how everything was."
p742
tp743
a(g741
I6
S'the only disappointment was the fried bean app - skip it!'
p744
tp745
a(g741
I7
S'waiter had fantastic wine pairings for each course.'
p746
tp747
a(g741
I9
S'made me feel like i was in a great restaurant in nyc, except that the service was way better.'
p748
tp749
a(S'321SNCqAWNCWQ5_mXbgXOQ'
p750
I0
S'giving two stars only because the food was good.'
p751
tp752
a(g750
I1
S'not great, but good.'
p753
tp754
a(g750
I2
S'pros: \ngood food\n\ncons:\nhorrible service\nlate food.'
p755
tp756
a(g750
I4
S"servers are not even bothered to ask once they take the orders \nour server took wrong order and then had to replace the food\nserver didn't even know how to place the food on the table(slams the plates all the time), chewing gums."
p757
tp758
a(g750
I5
S'no etiquette at all.'
p759
tp760
a(S'3A5jK284MfFQk8oxS2sTug'
p761
I2
S'initially the food was great, the service was ok. gradually the service went from ok to bad.'
p762
tp763
a(g761
I3
S'on our as last two visits even the food was bad.'
p764
tp765
a(g761
I5
S'both the manchurians were only warm, as opposed to being hot.'
p766
tp767
a(g761
I6
S"i don't think they were made fresh."
p768
tp769
a(S'3A5jK284MfFQk8oxS2sTug'
p770
I7
S'the veg coins were not cooked properly.'
p771
tp772
a(g770
I8
S'the burnt garlic fried rice was good.'
p773
tp774
a(S'3EdgCvMG-k_FnXW0cm_dQw'
p775
I2
S'the views are really great of the strip.'
p776
tp777
a(g775
I3
S'and the best part is you are encouraged to go hang out, outside while waiting for your meal.'
p778
tp779
a(g775
I4
S'excellent service!'
p780
tp781
a(g775
I5
S"i really appreciated the fact that we weren't rushed and were given really good recommendations from our waiter who genuinely seemed to care that we had a great experience."
p782
tp783
a(g775
I6
S'i highly recommend making reservations.'
p784
tp785
a(S'3QrypXOWpAlLd_RXuwCZoQ'
p786
I4
S'everything from the time we arrived till the end of the reception was exceptional.'
p787
tp788
a(S'3QrypXOWpAlLd_RXuwCZoQ'
p789
I5
S'the food was amazingly good, especially the calamari and the vodka penne were my favorites.'
p790
tp791
a(g789
I6
S"but we ordered the wedding cake from them and i must say it was the best cake i've ever had in my life and i am in my sixties so that is saying alot."
p792
tp793
a(g789
I7
S'peter our waiter was exceptional.'
p794
tp795
a(g789
I8
S"try this place you won't be disappointed."
p796
tp797
a(S'3_EcIY97QfIOgmyD0D5Ciw'
p798
I0
S'was disaponinted with the amount of time it took me to get service at the bar !!'
p799
tp800
a(g798
I1
S'staff was friendly and the decar was nice.'
p801
tp802
a(S'3kbFoqsQGekQOBkpbrvw1w'
p803
I1
S'of the dogs, it is also on hanover street, but is at street level and has wonderfully large windows to gaze out from (or longingly gaze into....).'
p804
tp805
a(g803
I2
S'it has less of the quirky stylings of the dogs, the tables and chairs all match here, however the food is equally good.'
p806
tp807
a(g803
I3
S"the menu is italian influenced, you'll find pizza and pasta on the menu alongside dogs's staples like coley and skirt steak."
p808
tp809
a(g803
I5
S'the food here is incredibly good value and of exceptional quality, i have eaten here a lot and have never had a bad experience.'
p810
tp811
a(g803
I6
S'i implore you to give it a try!'
p812
tp813
a(S'3mUmCPaWcxCjRM4-QmOoug'
p814
I0
S'this place is special.'
p815
tp816
a(g814
I1
S'i have no idea why except to say it has a really "good vibe" but here, i\'ll set the scene for you:\n\ni am pretty sure that one day i will be old.'
p817
tp818
a(g814
I9
S"still, when i go to pavilion cafe i see my future unfolding like this as i sip on a soy milk latte eating an amazing bowl of veggie minestrone soup with maybe the best bread i've had in a long time."
p819
tp820
a(g814
I10
S"it's just so."
p821
tp822
a(g814
I12
S'the hodge podge of chairs and books and stools outside give me the feeling that if i owned a farm in western massachusetts (the posh part) this is how my children would grow up.'
p823
tp824
a(S'3nwToZXKzxmAVaNhUDu_pA'
p825
I2
S"now it's the place we go for a wonderful night together or to bring out of town guests or even those who've never experienced this gem!"
p826
tp827
a(g825
I3
S"not once in all the years we've dined here, did we ever leave disappointed."
p828
tp829
a(g825
I5
S"they are always willing to  customize your entree by giving you a sampler of something if you can't decide between two items or change a side if you don't like what's offered."
p830
tp831
a(g825
I6
S'they always aim to please!'
p832
tp833
a(g825
I7
S'mark comes around personally to visit each table & has a friendly, top notch staff to support him that seems to genuinely like being there.'
p834
tp835
a(g825
I9
S"a light, but complex broth with wide egg noodles, campari tomatoes, spinach & a fennel chicken sausage that's just amazing."
p836
tp837
a(g825
I10
S'the warm bacon candy salad is a party in your mouth!'
p838
tp839
a(g825
I11
S"really, it's that good!!"
p840
tp841
a(g825
I13
S'the atmosphere has a comfortable, non-pretentious, neighborhood vibe that welcomes you whether your in jeans or a dress.'
p842
tp843
a(g825
I15
S"warm chocolate cake, profiteroles & creme brulee are just what the doctor ordered to put this one on the top of anyone's list!"
p844
tp845
a(S'3q68-kr8ivTPMGfPGKYm5w'
p846
I0
S'on the 50th floor with amazing views of the whole city !'
p847
tp848
a(g846
I2
S"greeted by our hostess we were seated at the window with a great view just at sunset as we we're eating before the show."
p849
tp850
a(g846
I5
S'our waiter was very helpful and informative about the menu.'
p851
tp852
a(g846
I6
S'good size restaurant, with a nice size bar and a very good wine list.'
p853
tp854
a(g846
I7
S'i had 1/2 dozen oysters and they were on the small side but very nice.'
p855
tp856
a(g846
I10
S'not the toppings i would have preferred, however it was very tasty, and 10 out of 10 on that choice, my sister ordered the onion soup.'
p857
tp858
a(g846
I11
S'it was very cheesy, lots of onions and was made with a nice beef broth, also delicious.'
p859
tp860
a(g846
I12
S'there were about 10 appetizers on the menu and it was a tough call which to order, they all sounded great.'
p861
tp862
a(g846
I13
S'bread basket of lots of assorted warm rolls arrived with a great deal of butter arrived at the table and i hate to admit it, but i tried a couple - yummy, they were good!'
p863
tp864
a(g846
I14
S'great menu selection and it was hard to choose, but for my entree i had a 8 oz filet with a side of creamed spinach, it was rare, just the way i ordered it and it melted in your mouth it was soooooo good.'
p865
tp866
a(S'3q68-kr8ivTPMGfPGKYm5w'
p867
I16
S'the steak was a nice 4oz, the lobster was a nice size, but the "prawns" looked like shrimp....they were certainly on the small side, she received two and i was lucky enough to get one.'
p868
tp869
a(g867
I17
S'very delicious and buttery tasting, even though they were on the small side.'
p870
tp871
a(g867
I19
S'for dessert sis had the creme br\\u00fbl\\u00e9e and said it was just great, i did manage to get my spoon in there and taste it, and yummy was that good!'
p872
tp873
a(g867
I21
S'it is a very pricy menu and the majority of entrees come a la carte.'
p874
tp875
a(g867
I22
S'all in all, service was great, food just wonderful and view from the top was stellar!!!!'
p876
tp877
a(g867
I23
S'even got to hop out on to the patio and it was really nice, small breeze and perfect for some photos of the city.'
p878
tp879
a(S'3zbsgICVzggfgj0BYu55Yw'
p880
I0
S'sad experience, way under staffed, waiter was pleasant but hurried and cared less what you ordering.'
p881
tp882
a(g880
I3
S"ridiculous for the price and ambiance of this restaurant i wo.uld suggest go to the lounge and enjoy the view but definitely plan dinner elsewhere as this one won't get a second chance from this las vegas local."
p883
tp884
a(S'41Uh-5XP9vH1zNa_c4rnlw'
p885
I1
S'the fish and chips perfection.'
p886
tp887
a(g885
I3
S'sweet potato tots are a delight.'
p888
tp889
a(g885
I10
S'consider i was not offered a bite as i usually am it must have been delicious.'
p890
tp891
a(g885
I11
S'the calamari was a bit over priced for the size.'
p892
tp893
a(S'44yXnCWfRqxjYTSOz2kQUA'
p894
I0
S'wow... awesome experience!'
p895
tp896
a(g894
I1
S'me and my wife had the best steaks of our lives here t the voodoo lounge!'
p897
tp898
a(g894
I2
S'great service and the food was far beyond our expectations.'
p899
tp900
a(S'44yXnCWfRqxjYTSOz2kQUA'
p901
I3
S'and the prices were not that bad being as nice of a place as it was!'
p902
tp903
a(g901
I4
S"highly recommend for anyone wanting a special night to remember while having the best steaks i've had in vegas period!"
p904
tp905
a(S'4702XOIzvJ6A_YKz7ZVLSg'
p906
I0
S'great find for us as we were on phx for the first time.'
p907
tp908
a(g906
I1
S'best mussels that i have ever had.'
p909
tp910
a(g906
I2
S'tremendous food.'
p911
tp912
a(g906
I3
S'candied bacon salad was excellent.'
p913
tp914
a(g906
I4
S'scotch beef was tender and delicious.'
p915
tp916
a(S'4EnMpEDC3FwwLXB18EwBQg'
p917
I0
S'first off the food was great.'
p918
tp919
a(g917
I3
S'secondly, this is a crawfish/shrimp/crab place, that is what is good.'
p920
tp921
a(g917
I4
S'if you want fried fish go to an english pub.'
p922
tp923
a(g917
I7
S'i really hope this place makes it because bottom line, the food is good.'
p924
tp925
a(g917
I8
S'the wall decorations will come later once people figure out how good this place is.'
p926
tp927
a(S'4X5WkBXGqDF5ZUUT7KNYZQ'
p928
I1
S'went for dinner the first time and food was great.'
p929
tp930
a(g928
I2
S"service was slow but it was like week 3 so i can't be negative about that."
p931
tp932
a(g928
I4
S'great drinks, wine and food specials till 7pm.'
p933
tp934
a(g928
I5
S'no complaints at all.'
p935
tp936
a(S'4XczQlVWvzE4LguYcU_1uQ'
p937
I3
S"the host didn't get our jokes."
p938
tp939
a(g937
I4
S'she was kind of a stick in the mud.'
p940
tp941
a(g937
I5
S'there is a holding area for the elevator.'
p942
tp943
a(S'4XczQlVWvzE4LguYcU_1uQ'
p944
I6
S'there was literally what looked like a gurney for moving people around and weird "voodoo" like decorations on the walls.'
p945
tp946
a(g944
I8
S'the view outside was great, but not at 140 f. \n\nwhen we got into the restaurant, there was a weird lion/leopard/africa them to the chairs, but a decidedly french/american menu.'
p947
tp948
a(g944
I9
S'we had a nice view.'
p949
tp950
a(g944
I13
S'it had the parmesan flat crisps and they were quite good.'
p951
tp952
a(g944
I16
S'if you want a view, hit this up at night for the club.'
p953
tp954
a(S'4h1IZhnH3JwIYOJ3yiJGLw'
p955
I0
S'pricey but worth it!'
p956
tp957
a(g955
I1
S'excellent food and service!'
p958
tp959
a(g955
I2
S'overlooks the strip and clean upscale restaurant...would definitely go back!'
p960
tp961
a(g955
I3
S'out of the four of us no one had complaints...'
p962
tp963
a(S'4knHOJAXAJZTZsh-HkMt1Q'
p964
I2
S'first, i would like to say that the service was dreadful.'
p965
tp966
a(g964
I5
S'the place was empty and still we got bad service!'
p967
tp968
a(S'4lW4UJ2el3SHIBcd32N7DA'
p969
I2
S'great customer service and great subs!'
p970
tp971
a(S'4lW4UJ2el3SHIBcd32N7DA'
p972
I3
S"i'd recommend this place to others"
p973
tp974
a(S'4miq2kvSgVZkNpIcxgg5bA'
p975
I0
S'what an amazing dinning experience.'
p976
tp977
a(g975
I1
S'the food is excellent the service was top notch and how can you beat the location.'
p978
tp979
a(g975
I3
S'i would recommend this anyone visiting arizona.'
p980
tp981
a(S'4oLDJpoapJtZUB8Ue3j2iQ'
p982
I0
S"the filet mignon looks as if it's straight out of a magazine ad for filet mignons, perfection and how a filet mignon is supposed to look ."
p983
tp984
a(g982
I2
S'absolute perfection.'
p985
tp986
a(g982
I5
S'drinks were refilled.'
p987
tp988
a(g982
I6
S'service was quick and professional.'
p989
tp990
a(S'4wRuohy4eAelIP6lRZz6PA'
p991
I2
S"the positives, straight-away:  the ambiance, decor and the bartender serving me were all perfectly adequate -- and that's where they end."
p992
tp993
a(g991
I13
S"it was so unbelievably disrespectful and unwelcoming i'm pretty sure the only reason i actually sat down at the bar was because there was a seat open, and i was still trying to process what had just happened."
p994
tp995
a(g991
I15
S'the carpaccio was the most boring carpaccio i have ever had -- not bad, not good: boring.'
p996
tp997
a(g991
I16
S'insanely, there was too much meat!'
p998
tp999
a(S'4wRuohy4eAelIP6lRZz6PA'
p1000
I17
S'just all meat and parmigiano -- a little more olive oil and some simple dressed greens would have made that dish so much better.'
p1001
tp1002
a(g1000
I27
S"if you're an older, much more boring person in the world, this place is right up your alley."
p1003
tp1004
a(g1000
I29
S'this place would probably be perfect for older rich people that have no real palate:  people that go to restaurants to improve their socioeconomic standing among their peers instead of discovering mind-blowing food.'
p1005
tp1006
a(g1000
I30
S"i'm sure chef tarbell is an excellent chef, but i'm under the impression he has had to dumb down his food because the well-heeled, stodgy clientele wouldn't be able to appreciate the real thing."
p1007
tp1008
a(g1000
I31
S"that, or food network's ica is scripted and staged."
p1009
tp1010
a(S'506xd1foWU0Ud4jCduBz4g'
p1011
I0
S'waste of our money!!'
p1012
tp1013
a(S'54ELz59pXUXbFd7i7k3wlw'
p1014
I0
S'the view is beautiful, but the restaurant is not worth the money.'
p1015
tp1016
a(g1014
I4
S'the staff was not friendly and we had better service at the casino buffet.'
p1017
tp1018
a(g1014
I5
S"the nicest person there was the photographer who was so kind and took our picture out on the patio, and to my surprise caught my boyfriend's proposal as well."
p1019
tp1020
a(g1014
I7
S'the food was average.'
p1021
tp1022
a(S'54ELz59pXUXbFd7i7k3wlw'
p1023
I9
S'if the service had been a little better, i might consider going back.'
p1024
tp1025
a(S'561VBLTmXwzcAuMaM3W__A'
p1026
I0
S"we keep going back, for the price you can't beat it, have not been let down yet"
p1027
tp1028
a(S'56ihVgKyF8BJx1pTGxnrUA'
p1029
I1
S'no disappointments at all.'
p1030
tp1031
a(g1029
I3
S"the nosh plate is very good, i love the roasted beet salad, and the pork chops we had are among the best i've eaten in a restaurant."
p1032
tp1033
a(g1029
I4
S'the hamburger is amazing, too.'
p1034
tp1035
a(g1029
I5
S"no problem whatsoever with wait staff  - very good service each time from anthony and jeremy -- cheerful, knowledgeable about the food, and didn't miss a beat."
p1036
tp1037
a(g1029
I6
S'live music the other night, which was delightful.'
p1038
tp1039
a(g1029
I7
S'it was not too loud or otherwise intrusive and it added a festive air.'
p1040
tp1041
a(S'599GMq-g04xWuELQBAjsPQ'
p1042
I1
S'i am really impressed by their business, last week we got two regular subs, when we got home we noticed that it seemed to be lacking in meat and the cheese was non-existent on one and paper thin on the other.'
p1043
tp1044
a(g1042
I2
S"the subs were still good, but it was disappointing and i sent my concern off to jersey mike's."
p1045
tp1046
a(g1042
I6
S'the subs were fantastic this time.'
p1047
tp1048
a(g1042
I9
S'yes their prices are a bit higher then a place like subway, but you do get what you pay for!'
p1049
tp1050
a(S'59jvJf_z2UnmFTewTUBseg'
p1051
I0
S'disappointed.'
p1052
tp1053
a(g1051
I5
S'my second disappointment was the meat.'
p1054
tp1055
a(S'59jvJf_z2UnmFTewTUBseg'
p1056
I10
S'the staff was very friendly, the restaurant was clean, there were blown up photos of the pt.'
p1057
tp1058
a(g1056
I11
S"pleasant side of the manasquan inlet and jenk's pier with surfers heading out, a nice touch of back home, but that's the best i can say."
p1059
tp1060
a(g1056
I12
S"the staff was so personable i don't regret leaving them a tip even though they forgot my cheese."
p1061
tp1062
a(S'5A2DL0laWzTRL14icaS9nA'
p1063
I1
S'this place is terribly understaffed, on a friday night there should not be only 2 bartenders for a packed bar.'
p1064
tp1065
a(S'5U7urMiT9h_eTnlgv_uauw'
p1066
I0
S'totally delish!!'
p1067
tp1068
a(g1066
I4
S"naturally, this is to be expected for a new no-name sort of place, but i wanted to trust my fellow yelpers' enthusiasm for the place."
p1069
tp1070
a(g1066
I5
S'props to joel l. for his wonderful must/should order list.'
p1071
tp1072
a(g1066
I8
S'i tend to love hot and sour soup when i have a cold - the peppery vinegary goodness is perfect for curing the sniffles.'
p1073
tp1074
a(g1066
I9
S"i'm pretty sure this is my new cold-fighting takeout!"
p1075
tp1076
a(g1066
I13
S"it had a very light sauce which was not greasy at all - something that i've found is a rarity in chinese food."
p1077
tp1078
a(g1066
I18
S'even the leftovers (portion size = generous here), were great.'
p1079
tp1080
a(g1066
I19
S'i hope yelp keeps this place alive - it is that good!'
p1081
tp1082
a(S'5UsiAQvgZ6lpfEBfcrrvAw'
p1083
I0
S'when the menu includes "large intestine", you know it\'s got to be good.'
p1084
tp1085
a(S'5UsiAQvgZ6lpfEBfcrrvAw'
p1086
I1
S"well, not necessarily but you at least have an inkling it's not going to be the typical american chinese menu."
p1087
tp1088
a(g1086
I3
S"every dish was excellent, absolutely exceptional in a totally positive way,  and i look forward to returning for more as soon as i've recovered from my foray to the szechuan side of the menu."
p1089
tp1090
a(g1086
I4
S'sure, "hot n sour" soup is a chinese restaurant staple, but this one took the eye-watering, nose-running spicy-hot cake.'
p1091
tp1092
a(g1086
I5
S'(disclaimer: no warranty on over- stretched metaphors and aphorisms)  unfortunately "hot" doesn\'t like me anymore, but this was so good i elected to repair to the car for a shot of non-denominational pink bismuth solution in order that i should be able to consume more without immediate threat to self or community at large.'
p1093
tp1094
a(g1086
I6
S'it was so worth it.'
p1095
tp1096
a(g1086
I7
S"i'll be back with more specifics on the dishes we tried, but highly recommend the glutinous rice balls with the sweet sesame paste dessert."
p1097
tp1098
a(g1086
I8
S'delightful in itself, a light, not "heavy", lightly sweet dessert, a wonderful compliment to the meal as well as a utilitarian palate-cleansing restorative to the spice-numbed tongue, though from a marketing perspective i might recommend they come up with a more appetizing pseudonym for "glutinous rice balls".'
p1099
tp1100
a(g1086
I10
S'highly recommend.'
p1101
tp1102
a(g1086
I12
S'service was friendly and helpful.'
p1103
tp1104
a(g1086
I14
S"dining area and mens' room: clean."
p1105
tp1106
a(g1086
I15
S'conveniently adjacent to light rail stop.'
p1107
tp1108
a(S'5VMhcWSni4pqsQ-e5p6UJg'
p1109
I0
S'this place is amazing!!'
p1110
tp1111
a(g1109
I1
S'the food is excellent.'
p1112
tp1113
a(g1109
I2
S'scotch beef with mashed potatoes is my favorite, but everything i have had has been just as good... pepper steak, kale chips, ceasar salad, etc.'
p1114
tp1115
a(g1109
I3
S'the scallops are the best i have ever had.'
p1116
tp1117
a(g1109
I4
S'the owner is always in talking with customers, the bartenders are awesome, service is incredible.'
p1118
tp1119
a(g1109
I5
S'very warm and welcoming atmosphere.'
p1120
tp1121
a(g1109
I6
S'you can have a half order of anything on the menu, whether you are not very hungry or want to try two different things!'
p1122
tp1123
a(S'5da-9hR4LeMQ4cFygYABXQ'
p1124
I2
S'the atmosphere was typical for an irish bar, and we found the staff friendly and amazingly quick for as busy as it was.'
p1125
tp1126
a(g1124
I5
S'the shepard pie was especially good and the sweet potato tater tots with a side of guinness bbq sauce was a hit with entire table.'
p1127
tp1128
a(S'5hyXaELZOyxiyBS3hHUohg'
p1129
I0
S'very disappointed.'
p1130
tp1131
a(g1129
I1
S"only reason i didn't give voodoo steakhouse zero stars is because it has a nice view."
p1132
tp1133
a(g1129
I3
S"the glass was not frosty and the heineken was so skunky that it tasted like it was in storage for months...couldn't drink it."
p1134
tp1135
a(g1129
I5
S'nice butter, but bread could cut glass.'
p1136
tp1137
a(g1129
I10
S'meat was dry and overcooked which is a huge negative for a steakhouse.'
p1138
tp1139
a(g1129
I11
S'the macc and cheese could have been from any mediocre buffet and the broccoli was practically raw.....way too crunchy and tough.'
p1140
tp1141
a(g1129
I13
S'i wanted to express my thoughts to the waiter but does that really do anything other than make me look like a jerk?'
p1142
tp1143
a(S'5k_6P-Ipz2O7jYcOac2ldw'
p1144
I0
S'top notch food (apparently they have a renowned chef), decent service, prices are as fancy restaurants go, great ambiance, i love it.'
p1145
tp1146
a(g1144
I1
S"you really can't go wrong with anything on their menu."
p1147
tp1148
a(g1144
I2
S'everyone at our table left satisfied.'
p1149
tp1150
a(g1144
I4
S"the beets were deliciously sweet but a little on the smaller side so it'd be perfect before your main course."
p1151
tp1152
a(g1144
I5
S'the pony salad was a little more sizeable, less sweet as it was topped with blue cheese and bacon bits, and the smoked salmon was a fantastic touch.'
p1153
tp1154
a(g1144
I9
S'the ambiance was great, it was a quiet night and the music was pleasant - not too loud but audible.'
p1155
tp1156
a(S'5k_6P-Ipz2O7jYcOac2ldw'
p1157
I10
S'the layout was gorgeous and the home plate at the entrance was definitely very unique.'
p1158
tp1159
a(g1157
I11
S"i wouldn't say it'd be date night-worthy (unless she's into sports), but great for a nice dinner out."
p1160
tp1161
a(S'5lPNGR-JRlSPKPHdYprglA'
p1162
I1
S'they have a great crap special and they are on top of their crab game!'
p1163
tp1164
a(g1162
I2
S"they don't have much of variety on other food choices but if you are looking to get good fresh crab this is your place!"
p1165
tp1166
a(S'5nREKhkIXZPo6JgkmbBtAQ'
p1167
I2
S"but since everyone else ordered prime rib i bumped up my rating to a 4 star, and if service was the only thing i was rating then they'd get a 5 star, the busser and server were amazing."
p1168
tp1169
a(g1167
I3
S"everyone's prime rib was huge and tasty looking, lots of positive feedback on the prime rib, vege's were asparagus which had a sauce on them and were not crunchy and looked gray.. not fresh and green.. 1 star there."
p1170
tp1171
a(g1167
I5
S'salads didnt come with our meals which for $28 should have so 1 star for value in my opinion, but the salad was delish!'
p1172
tp1173
a(g1167
I6
S'ranch was yummy and tasted homemade.'
p1174
tp1175
a(g1167
I7
S"so all in all if you go and order prime rib and dont mind paying $5 extra for a salad then you should have a very good time.. i would not recommend the filet, go down the road and eat at feugos inside the fiesta, much better and you get a salad and the vege's are fresh and tasty."
p1176
tp1177
a(S'5sj8LuAWFgfgjiHV6tTjZQ'
p1178
I1
S'it was a truly fantastic night.'
p1179
tp1180
a(g1178
I3
S'it was truly phenomenal.'
p1181
tp1182
a(g1178
I4
S'the sauce was out of this world.'
p1183
tp1184
a(g1178
I9
S'i was torn as to what to order but i settled on the pan-roasted chicken and i was far from disappointed.'
p1185
tp1186
a(g1178
I11
S'all told, it was a perfect evening.'
p1187
tp1188
a(S'5swbGEiErjYktFlufOVaDA'
p1189
I7
S'they get it together then either raise the price to rediculous or charge full price for kids, common rrb.'
p1190
tp1191
a(S'5vkrX1Juu6qSS9a9q43XhA'
p1192
I1
S'they never disappoint here.'
p1193
tp1194
a(g1192
I2
S'every visit is just as good as the last if not better.'
p1195
tp1196
a(S'5zP-msrvkW7IUOBUzwdMKA'
p1197
I1
S'the view of vegas was wonderful, but the prices were a little steep.'
p1198
tp1199
a(S'600-d4GtmcSW2WwT-pk2Sg'
p1200
I0
S'great food, old vegas feel.'
p1201
tp1202
a(g1200
I1
S'try the pennealavodka or the steak.'
p1203
tp1204
a(g1200
I2
S'amazing.'
p1205
tp1206
a(S'60FY-3G-o_Hsa2pY3yKQCQ'
p1207
I2
S"the food is amazing the service is amazing and the overall customer service can't be touched."
p1208
tp1209
a(g1207
I5
S'the cheese pizza is divine as well.'
p1210
tp1211
a(g1207
I7
S'try this place you will not be dissappointed!'
p1212
tp1213
a(S'60LmU8XCOm_ZaZP5qs2-5Q'
p1214
I3
S'the fried pickle chips she recommended was one of the tastiest things i have ever eaten.'
p1215
tp1216
a(g1214
I5
S'the pimento cheeseburger i had was also very good!'
p1217
tp1218
a(S'64cY1Z-Kkccy_8Qy3_GZTQ'
p1219
I2
S'i eat here often and i have yet to have a bad experience.'
p1220
tp1221
a(g1219
I3
S'brunch here is amazing, as well as lunch and dinner.'
p1222
tp1223
a(g1219
I4
S'the bar tenders are really attentive and the drinks are well priced.'
p1224
tp1225
a(g1219
I5
S"go here and you won't regret it!"
p1226
tp1227
a(S'65bkEkGp8DWCXsRMwRF7BA'
p1228
I1
S'had delicious fish tacos.'
p1229
tp1230
a(g1228
I2
S'all small plates were half off for happy hour making this place a steal for good food.'
p1231
tp1232
a(g1228
I3
S'will definitely be returning!'
p1233
tp1234
a(S'66_bBhcbtpf4_CcMCftzUQ'
p1235
I0
S"the bread was blase, but the vegetables were among the best as well as the salmon and then the tiramisu was the best i've ever had, they make it on site."
p1236
tp1237
a(g1235
I1
S'the service was over the top, the atmosphere is light and airy, the menu is veal heavy and i loved my experience here.'
p1238
tp1239
a(S'6F5vS9netV1Gm7AOqMuG7A'
p1240
I1
S'the food is always good.'
p1241
tp1242
a(g1240
I3
S'dessert is always good.'
p1243
tp1244
a(S'6H2j1Pk6PEc2tdN18QK71Q'
p1245
I2
S'the box seemed warm but not hot.'
p1246
tp1247
a(g1245
I6
S'not worth it.'
p1248
tp1249
a(S'6LqPr8U2X0xEgUivNdACZw'
p1250
I6
S'this was a great choice, the chicken was cooked perfect and full of flavor.'
p1251
tp1252
a(g1250
I7
S'not greasy just crunchy and delicious.'
p1253
tp1254
a(g1250
I10
S'holy hell this was good.'
p1255
tp1256
a(g1250
I12
S'good choice for sure.'
p1257
tp1258
a(g1250
I13
S'this was a good stop.'
p1259
tp1260
a(S'6NW4tCFM-WoVc2CsjENmfQ'
p1261
I0
S'the subs were a little more money than subway but worth the price.'
p1262
tp1263
a(g1261
I1
S'this place is in a new urban development that looks great.'
p1264
tp1265
a(g1261
I2
S"however, this restaurant is a bit noisy and the staff had to yell to get my order (i personally don't like getting yelled at before i eat... i need soft, calm voices)."
p1266
tp1267
a(S'6NW4tCFM-WoVc2CsjENmfQ'
p1268
I5
S"the food was great, the bread was my favorite because it was fresh and very soft (fluffy clouds from heaven); i'll be back."
p1269
tp1270
a(S'6YneHLieBPpJN-ITCAG3ww'
p1271
I1
S"in one word ugly, brown painted wall with a few wire voodoo figures, same old beat up chairs with stains on the fabric and wood that is all chewed up, i don't know who hired the designer , must have gone to home depot and asked for redecorating idea."
p1272
tp1273
a(g1271
I2
S'there is nothing voodoo about it , the old decor was fun and different, this one is just different for the sake of not be the same but very badly done and done cheap.'
p1274
tp1275
a(g1271
I6
S'this is the most pathetic lobster thermidor i have ever seen covered with a mystery salty sauce that have nothing to do with the dish other than to cover up the cheap ingredients.'
p1276
tp1277
a(S'6Yo038ipIHdxQQv9QXW9WQ'
p1278
I2
S'you will find surly waitresses who look at you like they really hate you as you order.'
p1279
tp1280
a(g1278
I3
S'but you did not come for the service.'
p1281
tp1282
a(g1278
I4
S'you came for the dirt cheap tsing tao beer (thank goodness they have it to help quell the heat).'
p1283
tp1284
a(g1278
I6
S"if you're in luck they'll have super spicy wontons, chive pancakes, garlic marinated cucumber to start."
p1285
tp1286
a(g1278
I9
S"it's a northern chinese restaurant, so the few cantonese dishes (like walnut shrimp) are a disappointment."
p1287
tp1288
a(S'6acTSWhdkRGjvMu25B4Mjw'
p1289
I3
S'big disappointment.'
p1290
tp1291
a(g1289
I5
S'still good food but major bummer.'
p1292
tp1293
a(S'6bYVb3a5mEjADI0-zTgDrA'
p1294
I0
S'pizza sola offers tasty and innovative pizza by the slice, in a clean and modern looking environment.'
p1295
tp1296
a(g1294
I1
S'the slices are huge, but thin (one is enough for me for a meal).'
p1297
tp1298
a(g1294
I2
S"i've gotten the greco twice, which is white pizza with tomatoes, spinach, feta, and some wonderful herbs and garlic."
p1299
tp1300
a(g1294
I3
S"the crust is cracker-crispy, and they warm up your slice after you order it so it's always served at the perfect temperature."
p1301
tp1302
a(g1294
I6
S'by and large, it tastes fresh and is surprisingly not-heavy in your stomach.'
p1303
tp1304
a(S'6eqb8j8FTcPs7fb2NU_q8Q'
p1305
I1
S"the food is good just don't expect any with a brain stem to help you out."
p1306
tp1307
a(S'6gMvUMU-ePd-v71x2xMH3g'
p1308
I2
S'the rib eye steak was cooked perfectly and my girlfriend reported the seafood platter was unbelievable.'
p1309
tp1310
a(g1308
I3
S"even the tiramisu was good (although not as coffee flavored as we're used to)."
p1311
tp1312
a(g1308
I5
S'oh, the appetizers were incredible too, especially the sauteed portabello mushrooms.'
p1313
tp1314
a(g1308
I6
S"can't forget the service, which was an a++."
p1315
tp1316
a(g1308
I7
S"don't just drive by, check this place out."
p1317
tp1318
a(S'6jxyxRXReBCtWzCChrY9LA'
p1319
I0
S'very nice location!'
p1320
tp1321
a(S'6jxyxRXReBCtWzCChrY9LA'
p1322
I2
S'great indoor/outdoor bar.'
p1323
tp1324
a(g1322
I3
S'and the new strippers chicken baskets are amazing!'
p1325
tp1326
a(g1322
I4
S'friendly staff, yummy beers on tap.'
p1327
tp1328
a(S'6mSUt3z39vtdSwq7cgeAtg'
p1329
I2
S"but before you judge i want you to think about having late meetings, or a busy night where you're at work, then the gym, then off to meet friends."
p1330
tp1331
a(g1329
I5
S"bonus is they don't have a specific time for breakfast or lunch... they offer curly fries and they have plenty of offerings that i don't have to specify no tomato on."
p1332
tp1333
a(S'6zfN-4Co9pXHSQNwcJ03mQ'
p1334
I1
S'it continues to be exceptional in regard to service and high quality.'
p1335
tp1336
a(g1334
I2
S"one of arizona's best restaurants."
p1337
tp1338
a(S'73GNaRzVXTH75yaInmV2Qw'
p1339
I1
S'i ordered the moo shoo chicken and it was yummy.'
p1340
tp1341
a(g1339
I3
S'the green beans were amazing though.'
p1342
tp1343
a(g1339
I4
S'i quickly found out that i have enjoyed eating very americanized chinese dishes with the sesame chicken and sweet and sour chicken.'
p1344
tp1345
a(g1339
I10
S'the menu was very helpful because it was marked by spiciness.'
p1346
tp1347
a(g1339
I12
S'the food looked amazing when it came out and i tried everything i could.'
p1348
tp1349
a(g1339
I13
S'i would like to go back and try more things so i can experience more authentic chinese.'
p1350
tp1351
a(g1339
I15
S'here are some item that others have recommended:\nporkbelly in the appetizers\neggplant\nglazed green beans\nkung pao chicken'
p1352
tp1353
a(S'77c9wz87UeUzmAwJjYSeSA'
p1354
I2
S'after a great cocktail at the bar (love the atmosphere including the open kitchen -- very warm space with high energy), we sat and enjoyed the mussel app.'
p1355
tp1356
a(g1354
I3
S'the size of this appetizer was disarmingly huge!'
p1357
tp1358
a(g1354
I4
S'when the server brought out two large bowls, i was so confused that i asked if he had put in an order for each of us; the server kindly explained that it was just one order that he split for us (wow).'
p1359
tp1360
a(g1354
I5
S"i did not finish the app, partially because it was so huge and partially because it wasn't life-altering and i wanted to hold out for better flavors to come."
p1361
tp1362
a(g1354
I7
S'we did some splitting and switching on our entrees, and honestly...they were good -- totally solid.'
p1363
tp1364
a(g1354
I8
S'....but i felt bad for having such high expectations.'
p1365
tp1366
a(g1354
I9
S"solid wasn't what i was expecting...i was expecting impressive, surprising, can't-get-enough."
p1367
tp1368
a(S'7BQUgmcdX3p4kLwI31MVCQ'
p1369
I1
S'i have to say this was a wonderful meal.'
p1370
tp1371
a(g1369
I2
S'i had the scotch beef and my wife had the salmon, great flavor and quality.'
p1372
tp1373
a(g1369
I3
S'the service was very good, our waiter was very knowledgeable about the menu and made great recommendations on what to order.'
p1374
tp1375
a(g1369
I4
S'very glad that we chose this place while in phoenix.'
p1376
tp1377
a(S'7FASrs-VnLVNQ2mrn6oaww'
p1378
I1
S'a little confusing that the italian branch of the dogs restaurant chain has gone all american on us, but trust me, it is a good thing.'
p1379
tp1380
a(g1378
I9
S'the ambience here is nice in a relaxed way.'
p1381
tp1382
a(g1378
I10
S'huge tall ceilings and mainly white, white, white walls leave it feel very airy and open although it does get warm in a comfortable way.'
p1383
tp1384
a(g1378
I12
S'the only thing that i was a little put-down by is the presentation of the meals.'
p1385
tp1386
a(g1378
I13
S"now, the dogs provide good grub with slightly 'different' dishes (the regular the dogs offers stuffed lamb's heart for example) but at affordable prices."
p1387
tp1388
a(S'7FASrs-VnLVNQ2mrn6oaww'
p1389
I14
S'however, as a result the presentation is just a little...lacking.'
p1390
tp1391
a(g1389
I25
S'nice.'
p1392
tp1393
a(g1389
I30
S'but the portion was really, really quite small.'
p1394
tp1395
a(g1389
I32
S"i'm a wee lass, and paid \\u00a38 for something that left me wanting more...\n\nbecause, to be honest, the food was good."
p1396
tp1397
a(g1389
I33
S"and i think if you'd ordered something different that was more filling naturally it would be good value for money."
p1398
tp1399
a(g1389
I35
S'the tiramisu for dessert was scrummy too.'
p1400
tp1401
a(g1389
I36
S"but again, it's just a slice of tiramisu in a bowl that's slightly too small for it (much in the same way that if you ate it everyday, your jeans would start to be just that tad too tight)."
p1402
tp1403
a(g1389
I37
S"if you expect good food but without the fuss of nice presentation, but rather how you'd serve it yourself at home, then you'll be a happy bunny."
p1404
tp1405
a(g1389
I38
S'overall, yep, thumbs up from me.'
p1406
tp1407
a(g1389
I43
S"but if you're looking for an all-out epic feast, you might be left a little hungry..."
p1408
tp1409
a(S'7JIFj4B1DOYUFgcPokc0PQ'
p1410
I0
S'a must on any visit to jean-talon market and my favourite crepe spot in montreal, mostly because the crepes served here feel authentically qu\\u00e9b\\u00e9cois.'
p1411
tp1412
a(g1410
I1
S'egg and ham, apple and maple syrup, potato and something... everything on the menu is simple, yet delicious.'
p1413
tp1414
a(g1410
I2
S'plus, they do buckwheat creeps, which are gluten free!'
p1415
tp1416
a(g1410
I3
S'stop by and give it a try.'
p1417
tp1418
a(g1410
I4
S"you won't be disappointed."
p1419
tp1420
a(S'7SaxtQlIbU6GUJWz6F6HeA'
p1421
I0
S'always good food, and a great selection of beer that will satisfy'
p1422
tp1423
a(S'7SorPHCj9zWuFXQFY_6_Vw'
p1424
I0
S'as a foodie, traveling through phoenix, i was excited to be able to dine at tarbells.'
p1425
tp1426
a(g1424
I3
S'i was quickly served  a tasty olive oil and bread for dipping, however the bread tasted very much like frozen par  baked bread, that had been reheated.'
p1427
tp1428
a(g1424
I7
S'obviously plated ahead and kept in the fridge with which i have no problem per se, but the chilled meat subtle taste was masked by the very cold what was beautifully marbled beef.'
p1429
tp1430
a(g1424
I8
S'add to that, the overpowering amount of vinaigrette dressing on what looked like pretty arugula and the carpaccio was almost indiscernible.'
p1431
tp1432
a(g1424
I9
S"on the server's recommendation i ordered housemade ribbon noodles with homemade chicken fennel sausage, tomato, spinach in a rich buttery broth for my entree."
p1433
tp1434
a(g1424
I10
S'what arrived was a very full bowl of broth that was very very rich with butter and for the first three spoonfuls was luxurious, but way too rich to be able to enjoy it in the quantity served.'
p1435
tp1436
a(g1424
I11
S'the fresh noodles that i had to search through the broth were stuck together in one mass under a small pile of canned tomatoes, the accompanying spinach also lost somewhere in the broth.'
p1437
tp1438
a(g1424
I12
S'the sausage looked like a breakfast pattie that had been browned on one side and then broken into pieces.'
p1439
tp1440
a(g1424
I13
S'not what i was expecting.'
p1441
tp1442
a(g1424
I14
S'the fennel seed was so overpowering i could not eat it all.'
p1443
tp1444
a(S'7WNZNVPj-g5Z0_ABRgd0yg'
p1445
I2
S'as the majority of my group were only in edinburgh for the weekend, i wanted them to enjoy a nice meal in a relaxed atmosphere.'
p1446
tp1447
a(g1445
I3
S'our experience was unfortunately quite the opposite.'
p1448
tp1449
a(S'7czedYKa1qmOpQV_MLjfHw'
p1450
I0
S"the first time we went to tarbell's was fantastic."
p1451
tp1452
a(g1450
I1
S'this most recent time was a disappointment.'
p1453
tp1454
a(g1450
I2
S'the wine was good, and so was my meatball pizza.'
p1455
tp1456
a(g1450
I5
S'the chocolate mousse was outstanding but the ice cream in the profiteroles was gelatinous.'
p1457
tp1458
a(S'7sEAhmdBMxBqNb5pk47vHA'
p1459
I2
S'the wait staff is super nice and will remember you after you go one time.'
p1460
tp1461
a(g1459
I3
S"plus, i like how it's all old school and they serve you your iced tea on a saucer with a spoon and you get a yummy dinner roll with crackers next to your salad."
p1462
tp1463
a(g1459
I5
S"oh yeah, the air conditioning is out of control if you're looking for a place to cool off in the summer."
p1464
tp1465
a(S'80ZRRt6GCHshIlrWcJaf9w'
p1466
I2
S'it was really good.'
p1467
tp1468
a(g1466
I4
S'the service was very attentive.'
p1469
tp1470
a(g1466
I5
S'the view was awesome as well.'
p1471
tp1472
a(S'84istL3L2e43HUrFHtE9wQ'
p1473
I0
S'the oldest restaurant in scottsdale is something worth checking out.'
p1474
tp1475
a(g1473
I1
S'the service is amazing.'
p1476
tp1477
a(g1473
I2
S"the food isn't maestros so don't walk in expecting something it is not."
p1478
tp1479
a(g1473
I4
S'it was pretty dead and it was us and some elderly "cowboys" at the bar.'
p1480
tp1481
a(g1473
I10
S'it was amazing!'
p1482
tp1483
a(S'86LOpra04naY-xLMaX0yEw'
p1484
I1
S'the fried rice was spiced right'
p1485
tp1486
a(S'8FwqFcl2Ez1NoovZr1XoHA'
p1487
I5
S'they are the best subs we have had.'
p1488
tp1489
a(S'8HRZznFT1tYXXjly45kB2Q'
p1490
I4
S'i though this was a good restaurant, and i liked the over the top whisky bread pudding.'
p1491
tp1492
a(g1490
I6
S'the place has a great atmosphere.'
p1493
tp1494
a(g1490
I7
S'they also picked up our wineries the next day which was nice of the wine buyer.'
p1495
tp1496
a(S'8MT-jnwNj0kYnkBAD_y6TQ'
p1497
I2
S'the prices of drinks are probably a bit higher here, so you may wish to get a base going before you find yourself here.'
p1498
tp1499
a(g1497
I3
S'the bartender was pretty nice to me.'
p1500
tp1501
a(S'8NbIVco9v9_4xa9SbnoKJA'
p1502
I0
S'we had a wonderful dinner and will be back.'
p1503
tp1504
a(g1502
I1
S'our waiter herb was awesome!!!!!'
p1505
tp1506
a(S'8OARXBcK-X4Ykf5CDq4m7Q'
p1507
I1
S'i am from seattle and i am used to really good thai food.'
p1508
tp1509
a(g1507
I2
S'this was the ultimate in sugary, saucy, syrupy grossness.'
p1510
tp1511
a(g1507
I7
S'there is no ambiance to speak of (its in a strip mall, and the decor is your usual average suburban diner.'
p1512
tp1513
a(g1507
I8
S'the bathroom (one) was pretty dirty and gross.'
p1514
tp1515
a(g1507
I9
S'needed some serious freshening up (try putting a coat of paint on the trim guys?).'
p1516
tp1517
a(g1507
I12
S'if you like this food, you probably need to venture outside your suburban existence.'
p1518
tp1519
a(S'8PRhFeNksbYq45ay0_XKYA'
p1520
I0
S'the view is extremely good, the wait service was excellent (thanks sam) its nice to have an engaging but not overbearing waiter.'
p1521
tp1522
a(g1520
I1
S'our food was very good...the filet melted as soon as it hit our mouths and the seared scallops...wow.'
p1523
tp1524
a(S'8SX8bCcwmUf3-qqKC1lqBA'
p1525
I1
S'other items, veggies, great salad bar, soups and a variety of desserts and ice cream soft serve machine.'
p1526
tp1527
a(g1525
I2
S'wait staff very friendly and.efficient.'
p1528
tp1529
a(S'8Spqqn02HVRktVCLnZY8Ag'
p1530
I0
S'the waitress is suck.'
p1531
tp1532
a(g1530
I1
S'and the dishes tastes not so good \nbad restaurant forever.'
p1533
tp1534
a(g1530
I2
S'maybe u guys can choose golden harbor to eat the chinese restaurant\ndo not come to this bad restaurant\nyou will be regret for your choice'
p1535
tp1536
a(S'8V7sk8UNeQp0F3EJVLhJGA'
p1537
I0
S'wow, for the price and quality, i am hooked.'
p1538
tp1539
a(g1537
I5
S'it came loaded with lettuce and tomato...\n\nmy lunch was really flavorful.'
p1540
tp1541
a(g1537
I6
S'the beef is nicely marinated.'
p1542
tp1543
a(g1537
I7
S'i also had the chicken taco and it was just perfect.'
p1544
tp1545
a(g1537
I8
S'both were served and it was nice and hot when it came out to us.'
p1546
tp1547
a(S'8VYXDx4qKxZLVCfsHeT_9g'
p1548
I0
S"i came here with some friends last fall for a slice of pizza after visiting the pgh glass center's open house."
p1549
tp1550
a(g1548
I4
S'while the slices were okay, my non-gf friend and i were a bit disappointed, since, for $4 a slice, we expected pretty incredible pizza.'
p1551
tp1552
a(S'8VYXDx4qKxZLVCfsHeT_9g'
p1553
I7
S'my non-gf friend agreed with me about the quality, even though her slice was fresher than mine.'
p1554
tp1555
a(S'8cy7kr92chZSOUDoyt3y3w'
p1556
I0
S'the most disguisting crap ive ever eaten!'
p1557
tp1558
a(g1556
I1
S'gross greasy cheese, low quality crust, and virtually no sauce.'
p1559
tp1560
a(g1556
I3
S'asked for extra sauce and they charged $2.75 without telling me and gave me extra cheese!'
p1561
tp1562
a(S'8d5C6mAEonHtKUirMpdxvQ'
p1563
I2
S'the food, the service, and the atmosphere are all excellent.'
p1564
tp1565
a(S'8jRIZsysu-YBXZlkm04U2w'
p1566
I0
S'great, huge new york slices are to be had at pizza sola and the toppings are interesting enough to set them apart from other shops.'
p1567
tp1568
a(g1566
I1
S'one slice could be considered two normal slices so bring your appetite.'
p1569
tp1570
a(g1566
I3
S'everything about it was fresh, however.'
p1571
tp1572
a(g1566
I4
S'their baked chicken wings were to die for.'
p1573
tp1574
a(g1566
I7
S"my girlfriend and i both remarked that these roasted, blackened wings were actually better than most fried wings we've had in pittsburgh."
p1575
tp1576
a(S'8lvvax7VC2LaWYENwTw1lQ'
p1577
I0
S"i have been here a few times for dinner, and it's consistently good."
p1578
tp1579
a(g1577
I1
S'the pasta is fresh and surprisingly light.'
p1580
tp1581
a(g1577
I2
S'amazing sauce!'
p1582
tp1583
a(g1577
I3
S'the service is always attentive but not overbearing.'
p1584
tp1585
a(S'8nJ7FZp4XIHtliiydUtVhg'
p1586
I0
S'chef has changed and so has the serving staff, and the quality of the dishes has drastically declined.'
p1587
tp1588
a(S'8nJ7FZp4XIHtliiydUtVhg'
p1589
I2
S'i would not recommend it again.'
p1590
tp1591
a(S'8nLGzotQ5RduPqwUEI7uIw'
p1592
I12
S'excellent service (they also had a wonderful reisling by the glass -- hard to come by), streamlined, upscale surroundings -- all in all, a terrific dining experience.'
p1593
tp1594
a(S'8nPjYUQT1nnWeKDKMK_WHg'
p1595
I0
S'i love this place.'
p1596
tp1597
a(g1595
I2
S"the food is good, but it's the feel of the place i really like."
p1598
tp1599
a(g1595
I5
S'breakfast is available all day, and you can get a good variety for a decent price.'
p1600
tp1601
a(g1595
I6
S"the lunches looked good and home-style, but i'm just a breakfast girl."
p1602
tp1603
a(S'8n_SFFAyDa0q9H6Gikr2JQ'
p1604
I1
S"i wasn't really all that impressed."
p1605
tp1606
a(g1604
I2
S'i mean, it was good, but i have heard people ranting and raving about this place for a long time so perhaps the expectations were a lot higher than they should have been.'
p1607
tp1608
a(g1604
I3
S'i got the scotch beef and it was delicious for the first few bites, and then i realized it tasted like the barbacoa from chipotle.'
p1609
tp1610
a(g1604
I4
S'service was good, but not anything outstanding.'
p1611
tp1612
a(S'8pGFz2MZj0Es-KLTWB9s4Q'
p1613
I4
S'her meal and the appetizer were good, but my clams were gritty.'
p1614
tp1615
a(g1613
I5
S'the downfall was the service.'
p1616
tp1617
a(g1613
I6
S'absolutely horrible.'
p1618
tp1619
a(g1613
I32
S"we won't be back here any time soon."
p1620
tp1621
a(S'8sqSjQZ8F5H5RqNo1Nj1vg'
p1622
I0
S'for as busy as this location is for lunch, it is always clean, the staff is friendly, and the sandwiches are consistently good.'
p1623
tp1624
a(S'8uzaxTfoPOYh2bk_InZd7g'
p1625
I0
S'very authentic chinese food.'
p1626
tp1627
a(g1625
I3
S'food quality is above average.'
p1628
tp1629
a(g1625
I4
S"some of the dishes you won't find on the menus here in the states, but they are pretty common in china, taiwan and hong kong."
p1630
tp1631
a(g1625
I5
S'service was excellent.'
p1632
tp1633
a(g1625
I9
S'my biggest negative is the price.'
p1634
tp1635
a(g1625
I10
S"it's a little overpriced considering the location and d\\u00e9cor of the restaurant."
p1636
tp1637
a(g1625
I12
S"the price won't break the bank, but i look at several things when rating including: 1) food   2) value  3) service  4) d\\u00e9cor  5) location"
p1638
tp1639
a(S'8xS9xugGApxWJYnNwaDMXw'
p1640
I1
S'it was very casual and laid back, with the big wooden chairs and comfortable atmosphere.'
p1641
tp1642
a(g1640
I2
S'the food was about the same as the bar back home too.'
p1643
tp1644
a(g1640
I3
S'good but not spectacular.'
p1645
tp1646
a(g1640
I4
S'it tasted very fresh and well cooked, but pub food is rarely worth getting too excited about.'
p1647
tp1648
a(g1640
I5
S'the waitress was very attentive and took good care of us.'
p1649
tp1650
a(S'9-iuO0MsNR_tkbxNQlfzSg'
p1651
I0
S"i'm sorry, but this buffet just feels kind of seedy and run down."
p1652
tp1653
a(g1651
I1
S"it's pretty cheap for snow crab legs, but you get what you pay for - about an hour of hard work for a few bites of crab."
p1654
tp1655
a(g1651
I2
S'all other food was not terrible, but not great either.'
p1656
tp1657
a(g1651
I4
S'there you get king crab legs, already split for you, and the buffet is so much nicer, cleaner, and fresher feeling.'
p1658
tp1659
a(S'9BE9tZid_VYSX-SZ24ud2g'
p1660
I0
S'awesome new tavern.'
p1661
tp1662
a(S'9FY1fducJGYyrReudszc8g'
p1663
I0
S'funny how bad service can tip an already poor experience to the black list.'
p1664
tp1665
a(S'9Ht3LBL6bGdX2neZAvoy4Q'
p1666
I3
S'other than that, the food was great, the lobster bisque was amazing, we both got the voodoo menage a trios (fillet, lobster tail & shrimp) which was also delicious.'
p1667
tp1668
a(g1666
I4
S'they brought me cake with a candle for my birthday, service was good as well.'
p1669
tp1670
a(g1666
I5
S"after, we went up to the voodoo rooftop lounge, was nice that we didn't have to pay a cover because we had just had dinner."
p1671
tp1672
a(g1666
I6
S'views were awesome, music was good and the crowd was right around our age which was nice since we are not 20 or 30 somethings!'
p1673
tp1674
a(S'9Kp3OD5ZXwIzUHH6S74Vog'
p1675
I1
S'very dated-looking on the inside.'
p1676
tp1677
a(g1675
I4
S'great steaks!'
p1678
tp1679
a(S'9PCx7yd9FzsOLIHVlul6jA'
p1680
I0
S'excellent sichuan and cantonese dishes, friendly efficient service, and great prices.'
p1681
tp1682
a(g1680
I1
S"you can't go wrong at miu's cuisine, which opened up recently."
p1683
tp1684
a(g1680
I4
S'each was a large portion of food, with a distinct flavor, and well seasoned.'
p1685
tp1686
a(g1680
I5
S"the ma po tofu and beef with bitter melon were some of the best that i've had."
p1687
tp1688
a(g1680
I6
S'our total for all that food with 2 sodas and hot tea (including tax) was about $55, not bad!'
p1689
tp1690
a(S'9PCx7yd9FzsOLIHVlul6jA'
p1691
I7
S'rice and drinks were refilled as necessary, and service was friendly and prompt.'
p1692
tp1693
a(g1691
I8
S'they speak english, mandarin and cantonese here.'
p1694
tp1695
a(g1691
I11
S'finally, a really good chinese restaurant in tempe!'
p1696
tp1697
a(g1691
I12
S"i'm predicting this will be one of my favorites for either dining out or getting food to-go if i'm in the mood for authentic chinese food!"
p1698
tp1699
a(S'9PjLrVJGDWmTr_dvRqdUmQ'
p1700
I2
S"it's perfect every time & on top of the great food, the service is excellent."
p1701
tp1702
a(g1700
I4
S'this is worth the drive if you live in phoenix & are looking around on yelp for a good thai place.'
p1703
tp1704
a(g1700
I5
S'check it out, you will not be disappointed!'
p1705
tp1706
a(S'9PuVzgOlfCyRq9FeOVR3Jg'
p1707
I0
S'cristian is the best, top notch for sure!!'
p1708
tp1709
a(S'9Pyn7uiSB-7fWtziZL2Zbw'
p1710
I2
S'only tried the pulled pork, which was good, but others said the chicken sandwich disappointed.'
p1711
tp1712
a(g1710
I3
S'lobster and potato cakes could have been better - too salty imo.'
p1713
tp1714
a(S'9QFZoPrQmJIVJ4belxhfwg'
p1715
I1
S'the lighting and whiteness of this restaurant make it very attractive, as does the sweeping bar and signature pooch art adorning the back wall.'
p1716
tp1717
a(g1715
I2
S'it all works really well, as does the homely and super relaxed feel of the dogs, and seadogs, so this is definitely yet another culinary hit for david ramsden, the owner.'
p1718
tp1719
a(g1715
I4
S'rigatoni al amitriciana always appeals to my half italian taste buds, as does the amazing seafood linguine.'
p1720
tp1721
a(g1715
I5
S'there are also pizza, soup and salad options to be had, all reliably very decent, so hesitate not in entering any of the dogs restaurant portals.'
p1722
tp1723
a(S'9RaRzZt4aomgnrD1XxZ60g'
p1724
I0
S'great service, good food, nice views - especially from the patio/deck, strong drinks.'
p1725
tp1726
a(g1724
I2
S'the lighting is romantic, the service was very good, the food was certainly good.'
p1727
tp1728
a(g1724
I3
S'not an extensive menu and maybe a little overpriced, but all in all i would go again.'
p1729
tp1730
a(S'9RaRzZt4aomgnrD1XxZ60g'
p1731
I4
S"if you show up early, do the zip line with the local discount, it's a fun 2 minutes."
p1732
tp1733
a(S'9_X_WlQG-vAjz_L250nN9A'
p1734
I4
S'this is the stupidest thing ever invented.'
p1735
tp1736
a(S'9bMVEoxcZul2ksJSFocPXQ'
p1737
I1
S'the lights were so dim that we had to use the our phones to read the menu.'
p1738
tp1739
a(g1737
I2
S'food portions were large.'
p1740
tp1741
a(g1737
I3
S'the server clained it serving size is for 1-2.  she was absolutely wrong...was enough for 4-5 folks.'
p1742
tp1743
a(g1737
I4
S'bottom line is that we had ordered a lot of food based on her recommendation.'
p1744
tp1745
a(S'9c-dc0NwXlGNt5PoYA8lcw'
p1746
I6
S'she was key in making our experience as good as it was.'
p1747
tp1748
a(g1746
I8
S'i thought the food was amazing.'
p1749
tp1750
a(g1746
I10
S'the parmesan broth on the home-made ribbon pasta dish was indescribably good, and the rosemary caramel on the (outstanding) cheesecake was truly delicious.'
p1751
tp1752
a(g1746
I11
S'as other reviewers have mentioned, the fried capers on the tartare are extra-special good.'
p1753
tp1754
a(S'9dFRYIx_sXRjXlZdDanLvg'
p1755
I0
S"great service here at nino's."
p1756
tp1757
a(S'9fbO0-I5w4ku-76XWrVDXg'
p1758
I0
S'excellent service, even better food.'
p1759
tp1760
a(g1758
I1
S'the seafood risotto is to die for, and my husband loved his pasta and sausage dish.'
p1761
tp1762
a(g1758
I2
S"it's a very expensive place to eat, but hey let's face it, you get what you pay for and here, you're paying for perfection."
p1763
tp1764
a(S'9k-goJAz5pgOOTLsjmE_Qw'
p1765
I0
S'worst service!!..'
p1766
tp1767
a(S'9lE6QzNJI0h1tSoXvFpozA'
p1768
I1
S'awesome atmosphere, good food, good service.'
p1769
tp1770
a(g1768
I2
S'my evaluation:\n\nfacility: good- really cool place, apparently the bar and most of the accoutrements were shipped in from ireland.'
p1771
tp1772
a(g1768
I3
S'relaxing atmosphere, great place to kick back and enjoy a meal.'
p1773
tp1774
a(g1768
I4
S'the stools we sat in were not the most comfortable, but nothing to really complain about.'
p1775
tp1776
a(g1768
I5
S'food: excellent - the food here is great.'
p1777
tp1778
a(g1768
I6
S"the menu selection is not too vast, but it's decent."
p1779
tp1780
a(g1768
I7
S'i had the lamb roast pie which was phenomenal.'
p1781
tp1782
a(g1768
I8
S'it had a goat cheese and potato bake on top, and i was pretty happy.'
p1783
tp1784
a(g1768
I10
S'the fries were ridiculously crispy, and just had that beautiful crunch to them.'
p1785
tp1786
a(g1768
I12
S'it was cold on the bottom, and wasn\'t completely "burnt" on the top.'
p1787
tp1788
a(g1768
I13
S"service: good - the waitress was attentive and helpful, but didn't get in the way."
p1789
tp1790
a(g1768
I14
S'food came out in reasonable amount of time, and everything came out as ordered.'
p1791
tp1792
a(g1768
I15
S'overall we had a good time, good food, and a fun night.'
p1793
tp1794
a(g1768
I16
S'i give ri ra a thumbs up!'
p1795
tp1796
a(S'9pNO0g9VxhoI0s4GitFLCA'
p1797
I0
S"tried this again, pizza wasn't as sloppy, still tasted good!"
p1798
tp1799
a(g1797
I1
S'also, the veggie calzone was amazing and cheap!'
p1800
tp1801
a(S'9yUayuA-oC5hscjFM8MtRw'
p1802
I0
S'have eaten here four or five times, most recently was on this past tuesday nite.'
p1803
tp1804
a(g1802
I7
S'the food arrived without to much delay.'
p1805
tp1806
a(g1802
I8
S'portion was ok actually, truth be told a lot better portion wise then some other restaurants.'
p1807
tp1808
a(g1802
I9
S'mushroom stir fry is two or three different kinds of mushrooms sliced with some bell peppers and dried chilli peppers, the green beans were fresh cut in half stir fried with green onion and dried chilli peppers.'
p1809
tp1810
a(S'9yUayuA-oC5hscjFM8MtRw'
p1811
I11
S'ok i quite liked the mushroom stir fry they only negative would be too oily, and i think they could have added some other veggies just to make it more exciting and healthy but over all it was tastey and it was not over cooked.'
p1812
tp1813
a(g1811
I12
S'the green beans with garlic sauce was over cooked.'
p1814
tp1815
a(g1811
I13
S'it would have been perfect if they did not cook it for as long as they did.'
p1816
tp1817
a(g1811
I14
S'other than that the taste was fine, especially liked the added chilli peppers.'
p1818
tp1819
a(g1811
I16
S'he said it was a little too oily and too salty, other than that he said the flavor was fine.'
p1820
tp1821
a(g1811
I20
S'the atmosphere is relaxed and comfortable.'
p1822
tp1823
a(g1811
I21
S'the waitress is very friendly and attentive.'
p1824
tp1825
a(g1811
I22
S'the decor is of your typical chinese restaurant  d\\u00e9cor.'
p1826
tp1827
a(g1811
I24
S'every time ive been there i see many chinese customers and they always seem  to be enjoying their food.'
p1828
tp1829
a(g1811
I27
S'all are welcome.'
p1830
tp1831
a(g1811
I28
S"don't feel any discrimination here."
p1832
tp1833
a(g1811
I29
S"i totally recommend miu's cuisine."
p1834
tp1835
a(g1811
I30
S'perhaps they will serve brown rice in the future.'
p1836
tp1837
a(g1811
I31
S'that would be a big plus.'
p1838
tp1839
a(S'A41quikjAeVkpW24ZFQrUQ'
p1840
I0
S"i've eatenpizza sola before, and the one on the south side seems to have a well rounded staff who know what they are doing."
p1841
tp1842
a(S'A41quikjAeVkpW24ZFQrUQ'
p1843
I14
S"again, the pizza is always good and good quality...i guess i just don't understand who hires these people."
p1844
tp1845
a(S'A9KVdHYkYYXMbI26_cwZ6w'
p1846
I1
S'authentic chinese food!!!!'
p1847
tp1848
a(g1846
I2
S'do not come here if you\'re looking for hokey and badly flavored "beef and broccoli"  bs.'
p1849
tp1850
a(g1846
I3
S'go to crazy buffet for that crap.'
p1851
tp1852
a(g1846
I5
S"you go to miu's if you want a religious experience in your mouth."
p1853
tp1854
a(g1846
I7
S'this young entrepreneur (who my husband and i had the blessing of being able to speak with as we dined all alone before the dinner rush) is a force of nature who knows good food and great service.'
p1855
tp1856
a(g1846
I8
S'i highly recommend the war wanton soup... and everything else on the menu.'
p1857
tp1858
a(S'ACJQQHZ-JAuhsoV3lbLxCg'
p1859
I1
S'the sandwich/ salad makers were polite and fast, and the price was reasonable for downtown.'
p1860
tp1861
a(g1859
I2
S'the salad looks like it could be good, but there is no way for me to know because they were out of utensils.'
p1862
tp1863
a(S'ADqwwjBUilyXX4rEazGgjg'
p1864
I4
S'it has the ambience (or lack thereof) that generally means delicious home style food.'
p1865
tp1866
a(S'ADqwwjBUilyXX4rEazGgjg'
p1867
I5
S"in this area miu's does not disappoint; formica tables and cafeteria chairs lead way to a tempting tome of a menu filled with many delights."
p1868
tp1869
a(S'AFVni8_I2CEAluAb-wSwMA'
p1870
I2
S'we were not disappointed!'
p1871
tp1872
a(g1870
I5
S'they were both very good, but not outstanding.'
p1873
tp1874
a(g1870
I9
S'we also shared the soup of the day, tomato bisque, and the bacon candy salad, both of which were delightful.'
p1875
tp1876
a(g1870
I11
S'we thought both were good, but the scotch beef was the winner.'
p1877
tp1878
a(g1870
I13
S'i like bread pudding and this was good, but not great.'
p1879
tp1880
a(g1870
I14
S'overall, we enjoyed this dinner very much.'
p1881
tp1882
a(g1870
I16
S'the service was well-timed and we never felt rushed.'
p1883
tp1884
a(g1870
I17
S'the waitress did a good job of checking up, but not being overly attentive.'
p1885
tp1886
a(g1870
I18
S"there are quite a few places to spend a nice evening in phoenix and this is a good choice, but i wouldn't be clamoring to come back, either."
p1887
tp1888
a(S'AIEAij3n8s_NyZpN6lRswA'
p1889
I1
S'the food is wonderful, the service is top drawer, and the atmosphere hits the exact right tone of hip.'
p1890
tp1891
a(S'AYVOHxUDSqG_rta6IZyjMg'
p1892
I0
S'really big & fresh shrimp !'
p1893
tp1894
a(S'Aauep7_I5QfmP3Tf9WUcfA'
p1895
I4
S'and the service, very very impressive!'
p1896
tp1897
a(g1895
I5
S'mngmnt even came by to see how everything was, well, just awsome!!!!'
p1898
tp1899
a(g1895
I6
S'i will definately frequent the pink pony....koodos to managemnt, bret c, the chef stephen e, and my server anthony.... :-) :-) :-)'
p1900
tp1901
a(S'AgKf4xwR5CeMa5SzTSqmng'
p1902
I0
S'food--- great    booze----great   service-- great  if you do not like this place , see a therapist.'
p1903
tp1904
a(S'AkbJwBJj1guobBp4W_jfWA'
p1905
I1
S'i digress.....anyway, i ordered their fish and chips, not necessarily a "safe bet" here in charlotte, because most use fishy cod.'
p1906
tp1907
a(g1905
I2
S'but thankfully, the fish here was haddock!'
p1908
tp1909
a(g1905
I3
S'which is a mild and yummy fish, much like halibut.'
p1910
tp1911
a(g1905
I4
S'and haddock is what the best fish and chips are made from, especially in england.'
p1912
tp1913
a(g1905
I5
S'well, suffice it to say, these were the best fish and chips i had here in charlotte!'
p1914
tp1915
a(g1905
I6
S'the batter was light, and not overly done which most tend to do.'
p1916
tp1917
a(g1905
I7
S'and it was very tasty too.'
p1918
tp1919
a(g1905
I8
S'combine that with the quality of the fish, and the yummy tartar sauce, and it was a great meal!'
p1920
tp1921
a(g1905
I9
S'my wife had the guiness beef stew, which also was yummy.'
p1922
tp1923
a(g1905
I17
S'overall, this was a great meal.'
p1924
tp1925
a(g1905
I19
S'and if you go here for lunch, try their burgers, which are great.'
p1926
tp1927
a(S'AkbJwBJj1guobBp4W_jfWA'
p1928
I20
S'one of the only places here in charlotte that actually know how to make crispy bacon!'
p1929
tp1930
a(g1928
I21
S'i hate, repeat, hate, soggy bacon!'
p1931
tp1932
a(S'ApL4LWLY0dC79U0zOK54EQ'
p1933
I1
S'the dan dan noodles have a very well rounded flavor, they are more than just hot with spice.'
p1934
tp1935
a(g1933
I2
S'the salt & pepper pork chops are nearly perfect...fried to airy perfection lightly sweet then covered with salt and pepper (fried peppers) which make for a great combination..and yes, you will catch me chewing on the bones!'
p1936
tp1937
a(g1933
I3
S"the kung po chicken is probably the best version of this dish i've ever had."
p1938
tp1939
a(g1933
I4
S"simply more complex and fresher than any one i've ever had."
p1940
tp1941
a(g1933
I5
S"once you get past the location, building, and dining room and you'll have some of the best chinese food in the valley....or order take-out."
p1942
tp1943
a(S'AxDBxV87AhAwNouYdbOWHA'
p1944
I0
S"3 1/2 stars, but i'm feeling friendly because it was a nice experience."
p1945
tp1946
a(g1944
I1
S'the 3 1/2 total rating is incredibly accurate.'
p1947
tp1948
a(g1944
I2
S'had a really nice dinner here.'
p1949
tp1950
a(g1944
I3
S"the service was solid, view was beautiful, and while the food wasn't memorable, it was really good."
p1951
tp1952
a(g1944
I4
S'pros: as most say, the view of the lv valley.'
p1953
tp1954
a(g1944
I5
S'they have a nice deck where you can go out and lounge and take in the view.'
p1955
tp1956
a(g1944
I6
S'the service was nice and efficient.'
p1957
tp1958
a(g1944
I7
S'everything tasted good, but nothing rocked my socks so much i would have to come back for it.'
p1959
tp1960
a(g1944
I10
S'truffle mac and cheese was also tasty.'
p1961
tp1962
a(g1944
I11
S"there is a 20% discount if you show your penn & teller tickets.. which you'll need because...\n\ncons: it's much too pricey for the quality!"
p1963
tp1964
a(g1944
I12
S'this is fine dining prices but outback steakhouse quality dishes.'
p1965
tp1966
a(g1944
I13
S"yes, it's plated nicely and yes the restaurant is pretty, but you're not going to get a unique flavor explosion here."
p1967
tp1968
a(g1944
I14
S"it's good, just nothing to write home about."
p1969
tp1970
a(g1944
I17
S'the price is not on the menu... that should have been our first clue.'
p1971
tp1972
a(g1944
I19
S'it was mediocre tomatoes, bitter lettuce, crumbled soggy burrata, and a light drizzle of balsamic.'
p1973
tp1974
a(g1944
I21
S"if you're a fine steakhouse, please use high quality produce, cheese, and balsamic."
p1975
tp1976
a(S'AxDBxV87AhAwNouYdbOWHA'
p1977
I22
S'the bread had potential but was rock hard.'
p1978
tp1979
a(g1977
I23
S'overall, a nice meal, a nice view, and other than my empty wallet, nothing substantial to complain about not look forward to for next time.'
p1980
tp1981
a(S'AxJ0MIegwWq6luou4knmyA'
p1982
I2
S'much different ambiance than the pasta shop bur there was a nice waiter who looked like a cross between john waters and johnny depp.'
p1983
tp1984
a(g1982
I3
S'they had several specials as well as an extensive menus and the waiter said they could make things like fettucine alfredo.'
p1985
tp1986
a(g1982
I6
S'the salads were great and quite big.'
p1987
tp1988
a(g1982
I7
S'the meals were also delicious although the salad plus the entree was too much food.'
p1989
tp1990
a(S'B1dBO6SHzUiKjETt8Lm--g'
p1991
I0
S'cheap prices.'
p1992
tp1993
a(g1991
I1
S'fast service.'
p1994
tp1995
a(S'B1ljVixT1lqOOfXAFeCFjQ'
p1996
I0
S'a lot of the chinese students here said this was a good place and more authentic than the other chinese places in town.'
p1997
tp1998
a(g1996
I1
S'i was recommended to try the stir-fried fish with chili and and the steamed fish with chili sauce.'
p1999
tp2000
a(g1996
I2
S'both were excellent and both dishes were big enough for two people to share.'
p2001
tp2002
a(g1996
I3
S'we also had a good dish that was thinly sliced potatoes and peppers.'
p2003
tp2004
a(g1996
I4
S'we also had a plate with various kinds of mushrooms.'
p2005
tp2006
a(g1996
I5
S'very tasty!'
p2007
tp2008
a(g1996
I6
S"they have some american chinese dishes too, but i didn't see the point in getting them, since i like trying new things and their menu is huge!"
p2009
tp2010
a(g1996
I7
S'they do not have a full bar like it says under the description, though.'
p2011
tp2012
a(S'B51tVmQwzxXSJ7rmeORCCg'
p2013
I0
S'love this place.'
p2014
tp2015
a(g2013
I1
S"it's small, family-run and inexpensive."
p2016
tp2017
a(g2013
I2
S'the vietnamese sandwiches are simple, delicious and fresh.'
p2018
tp2019
a(S'BHowk_0tJTGlTvV_WlMb3g'
p2020
I0
S'honestly many other chinese restaurants have much better food than this.'
p2021
tp2022
a(g2020
I1
S'same dish better taste.'
p2023
tp2024
a(g2020
I2
S'and what makes it the worst chinese restaurant is their super bad service.'
p2025
tp2026
a(S'BHowk_0tJTGlTvV_WlMb3g'
p2027
I3
S'always make customers wait extra longer time, eat there or to go or delivery!'
p2028
tp2029
a(g2027
I9
S'and as a chinese, i can assure you that other places have much better food.'
p2030
tp2031
a(S'BSPI9ojYnOKnU9XZU3tkPw'
p2032
I0
S'amazing decor with a modern and intimate feel.'
p2033
tp2034
a(g2032
I1
S"we were in town and decided to try a nice place for wine and dessert, had a glass of red zinfandel (fruitful and easy to drink) and my boyfriend had the vanilla porter (thick body and true to it's name) and a glass of malbec ( tasty and extremely smooth, definitely suggested)."
p2035
tp2036
a(g2032
I2
S'as we were trying to decide what to have for dessert, the manager came by and introduced himself, very friendly staff, and soon after we had a rosemary caramel cheesecake on the house!'
p2037
tp2038
a(g2032
I3
S'the rosemary caramel sauce was thick and tasty but not overwhelmingly sweet at all, the cheesecake itself was thick and creamy, and the crust was perfectly baked, we loved it.'
p2039
tp2040
a(g2032
I4
S'since the dessert was so good, we figured why not try out their steak.'
p2041
tp2042
a(g2032
I7
S'very tender and perfectly cooked.'
p2043
tp2044
a(g2032
I8
S'side of mashed potatoes were well mashed and not runny at all, gravy is by request and has a charred, oak taste to it, delicious.'
p2045
tp2046
a(g2032
I9
S'overall, we loved it!'
p2047
tp2048
a(g2032
I10
S'will definitely be back next time we pass by phoenix az'
p2049
tp2050
a(S'BUhFbIoZx8cnUOGXBi2jLQ'
p2051
I0
S'this place never disappoints.'
p2052
tp2053
a(g2051
I3
S'i had never seen the steak pie on their menu but it was amazing!'
p2054
tp2055
a(g2051
I4
S'services was great as always and we had a wonderful meal.'
p2056
tp2057
a(g2051
I5
S'ri ra is one of my favorite restaurants in charlotte and if you like pub food this place is the absolute best!'
p2058
tp2059
a(S'BpXk8RdYJeiD8NNtq9aYTg'
p2060
I1
S"tarbell's was so incredible on so many levels."
p2061
tp2062
a(g2060
I2
S'not only was the food incredible but the service was outstanding as well.'
p2063
tp2064
a(S'BpXk8RdYJeiD8NNtq9aYTg'
p2065
I6
S'much to our surprise she showed up with a complimentary plate of mixed veggies to try since it was our first time there .... and no surprise at this point but the vegetables were incredible as well.'
p2066
tp2067
a(g2065
I8
S'my husband and i just got back from our first trip to paris and i have been searching for anything that even comes close to authentic french creme br\\u00fbl\\u00e9e ..... and this was it !!!!!'
p2068
tp2069
a(g2065
I10
S'worth every calorie lol !'
p2070
tp2071
a(g2065
I14
S'if you are on the fence about trying this place out ... please do!'
p2072
tp2073
a(g2065
I15
S"you won't be disappointed in the least !!!"
p2074
tp2075
a(S'BuRawgaNC87Zqj3iaeucoA'
p2076
I0
S'the food here is quite good.'
p2077
tp2078
a(g2076
I1
S"the wait staff don't communicate well."
p2079
tp2080
a(g2076
I2
S'the ambiance needs work; feels like a warehouse.'
p2081
tp2082
a(g2076
I3
S'the hot seasoning is very hot, but the cantonese is very mild.'
p2083
tp2084
a(g2076
I4
S'try the braised eggplant and cucumbers in garlic.'
p2085
tp2086
a(S'ByFoyAu5FAtE9kcyXT1L5g'
p2087
I2
S'the decor is very nice, with lots of stainless steel tables and a nice seating area to eat-in.'
p2088
tp2089
a(g2087
I3
S'they have all the basic types of pizza, as well as some of the more unique (hawaiin pizza is great), but overall this is just a good ny-style thinner-crust pizza shop.'
p2090
tp2091
a(g2087
I4
S"what i love is that they're helping to populate the s. highland - penn circle intersection along with red room."
p2092
tp2093
a(S'C7MpKQNq95KMaFeFMXHXjA'
p2094
I4
S'confident we were given an over priced menu!!!!!!'
p2095
tp2096
a(S'CJKwusJmRv7Iit6D0eMdWQ'
p2097
I5
S'food is more interesting on the weekends, as they offer irish brunch dishes - my irish benedict (1st try having gotten consumed by a table pal after arriving with rashers, a thick, ham-like meat) was good, with the potato cakes stealing the show.'
p2098
tp2099
a(g2097
I6
S"i'd come back on a non-world cup weekend for this dish, absolutely."
p2100
tp2101
a(g2097
I7
S'bloody mary was meh, but it had a huge pickle spear as a garnish.'
p2102
tp2103
a(g2097
I8
S'hard to be angry at a drink that comes with a pickle.'
p2104
tp2105
a(S'CJaZ7JN-wKrQeWoTL7sR0A'
p2106
I0
S'this jack in the box is a pleasant reminder of how jack in the box used to be, years ago, when fast food was pitched primarily as a wholesome family dinner, rather than as something to quell the "munchies."'
p2107
tp2108
a(g2106
I1
S'the restaurant is always clean and non-rowdy.'
p2109
tp2110
a(g2106
I2
S'the staff is always nice and patient.'
p2111
tp2112
a(g2106
I3
S"i don't go there terribly often, but my order is always correct, hot, and looks remarkably like the product photo."
p2113
tp2114
a(g2106
I4
S"hours are more limited than for other jitbs in the region, so check their web site before going -- but they're open when they say they'll be."
p2115
tp2116
a(g2106
I9
S'you will not experience revelations on the scale of smashburger, and these really aren\'t "better burgers" so much as "way more out there burgers."'
p2117
tp2118
a(S'CK0Iio7wV6atBOLvqN2guA'
p2119
I2
S'if you live in anthem or desert hills you have to give dara thai a try.'
p2120
tp2121
a(g2119
I3
S'the food is consistantly great as well as the friendly service.'
p2122
tp2123
a(g2119
I4
S'the prices are very reasonable as well.'
p2124
tp2125
a(g2119
I5
S'try the pad thai and the curry fried rice i recomend it with pork or shrimp.'
p2126
tp2127
a(S'COvx8kjtOt867ppc8KHv6Q'
p2128
I0
S'tried it out for lunch.'
p2129
tp2130
a(g2128
I3
S'everything on the menu looks great.'
p2131
tp2132
a(g2128
I6
S'after a bit of a wait, i was served.'
p2133
tp2134
a(g2128
I7
S'the sandwich had a lot of crab that was in light sauce, fortnately not mayo.'
p2135
tp2136
a(g2128
I9
S'which was not toasted and a bit stale.'
p2137
tp2138
a(g2128
I11
S'the sweet potato fries were great!'
p2139
tp2140
a.