(lp0
(S'-BfOwq5-_opqlbSWPTdb6w'
p1
I2
S"the location is strange, you definitely need to know where you're going to find it."
p2
tp3
a(g1
I3
S"it's easy to miss the turn, and it's such a narrow driveway that a car cannot get in if another is trying to get out."
p4
tp5
a(g1
I5
S'once inside, the ambiance was strange.'
p6
tp7
a(g1
I6
S'the tables and decor felt classy, but the bright fluorescent lighting contrasted for a more industrial feel.'
p8
tp9
a(g1
I13
S'the eggplant and lettuce wraps were awesome, and the lo mein was fairly predictable.'
p10
tp11
a(g1
I15
S'the service was a little slow, but not enough to make us feel neglected; just to dine at a relaxed pace.'
p12
tp13
a(g1
I16
S"everyone seemed very friendly and grateful that we'd stopped in."
p14
tp15
a(g1
I21
S'this place is definitely worth a try.'
p16
tp17
a(S'-JJyBUL-UMi5B8Kx0tcMJQ'
p18
I0
S'they do a great job even if sitting at the bar.'
p19
tp20
a(g18
I1
S'solid and stable menu and super consistent.'
p21
tp22
a(g18
I2
S'my last meal before death penalty would be pepper steak and bread pudding.'
p23
tp24
a(S'-JmrSEYFkFZFBR3FmPWDMw'
p25
I0
S"it does not inspire confidence when your bar tendar has to look up on his phone the most basic of drinks, not complicated high ball drinks i'm talking white russians and manhattans, service was slow and food was not stand out, i could say these things could be attributed to growing pains but we wont be back to find out."
p26
tp27
a(S'-Kg-uDqum7w8vwLtaYKdEg'
p28
I0
S'good food, good service, good brew, and a very low-key place.'
p29
tp30
a(g28
I1
S'had lunch with some friends and family recently and i would really recommend the chicken pot pie.'
p31
tp32
a(g28
I2
S'it was very tasty.'
p33
tp34
a(S'-Kg-uDqum7w8vwLtaYKdEg'
p35
I3
S'the irish lamb stew was also pretty good, but the rueben sandwich was just average.'
p36
tp37
a(S'-Oazg8eredExg722SQuQqg'
p38
I0
S'i have four words for this place: yum, yum, yum and yummy!'
p39
tp40
a(g38
I2
S'the food was to die for!'
p41
tp42
a(g38
I3
S'i had the scotch beef which was amazing.'
p43
tp44
a(g38
I4
S'so tender, juicy, just yummy!'
p45
tp46
a(g38
I5
S'mashed potatoes were delish and so were the brussel sprouts.'
p47
tp48
a(g38
I6
S'the service was excellent.'
p49
tp50
a(g38
I7
S'wednesday was our server and she rocked it.'
p51
tp52
a(S'-W0pEnhxUUZai1ra5NS5Vg'
p53
I0
S'we decided to try this place because of the amount of good stars and reviews......big mistake!'
p54
tp55
a(g53
I3
S'like someone else mentioned, the salsa was very bland.'
p56
tp57
a(g53
I7
S'i had the chicken tacos and they were ok (nothing to brag about).'
p58
tp59
a(g53
I8
S"i also didn't like that you had to use cash instead of paying with any method of payment you wanted."
p60
tp61
a(g53
I9
S"the staff was pretty nice, but i won't ever return to this place."
p62
tp63
a(S'-XOiqy_b_N4RXiZ3M4Me3Q'
p64
I0
S'this review is geared specifically towards their lunch time fare.'
p65
tp66
a(g64
I3
S"the service was ok, not really over excited to serve but i imagine that's because this place gets really packed so they stick to the business at hand."
p67
tp68
a(S'-XOiqy_b_N4RXiZ3M4Me3Q'
p69
I5
S'this place gets packed!'
p70
tp71
a(g69
I6
S"of course a couple other good things about this location is that if the weather is good there isn't a much better patio for eating then right there outside, out front of hearst tower."
p72
tp73
a(g69
I7
S'also they have a loyalty card which is always a good thing!'
p74
tp75
a(S'-XbyzlFdMh5e0ndOGwsmpA'
p76
I0
S'this steakhouse is a hidden secret, and is spectacular.'
p77
tp78
a(g76
I1
S'i would recommend this steakhouse to anyone wanting fine dining at reasonable prices.'
p79
tp80
a(g76
I2
S"this is not a stuffy stuck up location that treats you poorly if you don't order alcohol."
p81
tp82
a(g76
I5
S'the new york steak was excellent, as was the prime rib.'
p83
tp84
a(S'-YL5TqbHKvc3HgdHxHRouQ'
p85
I3
S'the food can be "hit or miss".'
p86
tp87
a(g85
I4
S'last night, for example, the fish & chips was very disappointing.'
p88
tp89
a(g85
I6
S'the waitresses and bartenders are always friendly & first rate.'
p90
tp91
a(S'-YkjJlyx1-sG4C6x7Xy3Iw'
p92
I2
S'the filling came to your bite with some surprisingly pleasant fragrance.'
p93
tp94
a(g92
I6
S'we had\\uff1a\nappetizers:\nchengdu clear noodles\\uff08\\u6210\\u90fd\\u51c9\\u7c89\\uff09\nscallion pancakes\\u3000\\uff08\\u8471\\u6cb9\\u997c\\uff09\n\nmain courses:\nbraised duck with scallion\\uff08\\u4eac\\u8471\\u6252\\u9e2d\\uff09\nfire pot with pork intestine and hot sauce\\uff08\\u5e72\\u9505\\u80a5\\u80a0\\uff09\nsteam fish with pickled peppers in hunan style (\\u8dfa\\u6912\\u5168\\u9c7c\\uff09\ncelery fried with dry tofu and peppers (\\u5c0f\\u6912\\u9999\\u5e72\\u7092\\u82b9\\u83dc\\uff09\n\nthe braised duck with scallion\\uff08\\u4eac\\u8471\\u6252\\u9e2d\\uff09 and the steam fish with pickled peppers in hunan style (\\u8dfa\\u6912\\u5168\\u9c7c\\uff09 were really the highlights.'
p95
tp96
a(g92
I7
S'the duck was tender with a source surprises you mouth full.'
p97
tp98
a(g92
I8
S'the fish was just so gentle cooked that you feel it softened your teeth and tongue.'
p99
tp100
a(S'-YkjJlyx1-sG4C6x7Xy3Iw'
p101
I13
S'try it out there and you will never regret.'
p102
tp103
a(S'-_M3ZP6GMvz35CEjQcHQQw'
p104
I1
S'waitress was completely overwhelmed.'
p105
tp106
a(g104
I6
S"food isn't good either."
p107
tp108
a(g104
I8
S'i have never had a good experience here.'
p109
tp110
a(S'-aPQw2ICvSlslbFxS0XHSg'
p111
I1
S"place looks awesome inside and out.. we've been here 3 times since it reopened."
p112
tp113
a(g111
I2
S'the food has been really good!'
p114
tp115
a(g111
I4
S'their house made bread went perfect with the cheese and the little salad it came with but i wouldnt have minded another kind on the plate.'
p116
tp117
a(g111
I10
S'his burger was awesome, he mmmmed over the whole thing.'
p118
tp119
a(g111
I13
S'for dessert i had the mud pie semi fredo which apparently means half frozen and was as awesome as it sounds.'
p120
tp121
a(g111
I14
S'it was like mocha ice cream but lighter than ice cream with home made oreo crumbs.'
p122
tp123
a(g111
I15
S'the boyfriend opted for my other childhood flashback for his dessert and got the cream sickle pot du creme with these awesome little biscotti cookies.'
p124
tp125
a(g111
I16
S'it tasted just like the ice cream!'
p126
tp127
a(g111
I17
S'it was so cool and delicious, i kept stealing bites from him.'
p128
tp129
a(S'-aPQw2ICvSlslbFxS0XHSg'
p130
I20
S'i love the play on old fashioned desserts turning them into something new and exciting instead of the overplayed copout desserts\nservice was fantastic.'
p131
tp132
a(S'-ajXcCWLMa-CLQ0rOOtNYw'
p133
I1
S'the pepper-crusted steak was better than steaks i have had at many steakhouse in the valley.'
p134
tp135
a(S'-bFcRZIvSm7SK4GpGyseRg'
p136
I5
S'service is great and food is very reasonably prices and delish.'
p137
tp138
a(g136
I6
S"you won't regret coming here!"
p139
tp140
a(S'-dzOO077c8oNaIMq1ap1kg'
p141
I2
S'the food is consistently good, and the people are great.'
p142
tp143
a(g141
I3
S'if looking for a bite in anthem,  you have to consider this place.'
p144
tp145
a(S'-qPsbOKM477FEtisABFACQ'
p146
I0
S'went for the all-you-can-eat crab legs at the end of the summer and ate all i could.'
p147
tp148
a(g146
I2
S"the crab was acceptable because i'm a sucker for the little guys, but if you're at all picky you should run away."
p149
tp150
a(S'-rQEwF8Aihan0GyGHJDF3g'
p151
I1
S'their seating is mostly outside, where a variety of colourfully clashing chairs and tables are ordered randomly in front of the cafe, giving it a homely quirky look.'
p152
tp153
a(g151
I3
S'they serve mezze plates that come with a variety of freshly prepared salads, dips and warm pita bread alongside a selection of carefully prepared wraps and paninis, all made from local, organic produce.'
p154
tp155
a(g151
I4
S'the staff are always friendly, and alongside their lunch meals, all under a fiver, they have homemade cakes procured from a variety of local bakers, freshly ground zapatista coffee, an assortment of teas and organic fizzy drinks.'
p156
tp157
a(S'-rQEwF8Aihan0GyGHJDF3g'
p158
I5
S"if you're out with family, the cafe provides a mishmash of children's toys to play with, so you can lounge and enjoy your food and drink (or join them)."
p159
tp160
a(g158
I6
S'because of its location, the cafe is mostly open from spring, through the summer and into mid-autumn and its opening hours are often subject to the whims of the weather.'
p161
tp162
a(g158
I7
S"during summer nights, they've been known to show films on makeshift screens, sometimes to the accompaniment of live music."
p163
tp164
a(g158
I8
S'in other words, the pavilion is more than just a place to get a bite, but a place to spend the day, the night, or sometimes even the whole summer.'
p165
tp166
a(S'-tTNHK9PRS70_45MXoFgsw'
p167
I0
S'great service and nice atmosphere.'
p168
tp169
a(g167
I2
S'my meatloaf was excellent!'
p170
tp171
a(S'-veZHnFVbzm6KDgbTKu50w'
p172
I0
S'nice restaurant with a awesome view.'
p173
tp174
a(g172
I1
S'steak was cooked perfect and service was very good.'
p175
tp176
a(S'-vhkE3iRHP4PuVxx3D-o9g'
p177
I0
S'one of the 3 best steakhouses in the city.'
p178
tp179
a(g177
I1
S'but the view beats them all!'
p180
tp181
a(g177
I3
S"good portion sizes, and the smells from other tables made me wonder what i'd missed!"
p182
tp183
a(g177
I4
S'our waiter was excellent, and they are very personable, with great stories to tell about the city.'
p184
tp185
a(g177
I8
S'the drinks were also excellent!'
p186
tp187
a(g177
I9
S"although it's a bit pricy, it's inline with other restaurants that don't have a view of this magnitude."
p188
tp189
a(S'-yqdZPKGfe5KZQT-plpC-Q'
p190
I0
S'this place was great on all of the above, service, food, and atmosphere.'
p191
tp192
a(g190
I1
S'the view is phenomenal.'
p193
tp194
a(g190
I2
S'they have a patio that you can walk out on and have a drink, take pictures, check out the view etc.'
p195
tp196
a(g190
I6
S'everything was wonderful!'
p197
tp198
a(g190
I7
S'french onion soup was my favorite i loved the peppercorn taste it had.'
p199
tp200
a(g190
I8
S'broccoli was just that, broccoli but nothing to complain about.'
p201
tp202
a(S'-yqdZPKGfe5KZQT-plpC-Q'
p203
I9
S"my steak was cooked perfect and we couldn't stop eating the mac n cheese!"
p204
tp205
a(S'-zShBEPM8A2HliiZ--KyYA'
p206
I7
S'speaking of the bar - the drinks were pretty weak.'
p207
tp208
a(g206
I9
S'the highlight was the food, at least mine.'
p209
tp210
a(g206
I11
S'the brisket was very tender and everything had good flavor.'
p211
tp212
a(g206
I12
S'i asked for a side of the curry sauce and i do not kid or exaggerate to say it is out of this world good.'
p213
tp214
a(S'-zuInteKzMGePM9eoWUfLg'
p215
I3
S'the food here was amazing !'
p216
tp217
a(g215
I4
S'the service was world class.'
p218
tp219
a(g215
I5
S'but you get what you pay for here.'
p220
tp221
a(S'0-PJDm5vW9ZfHsF2mg_y6g'
p222
I1
S'i would definitely recommend this restaurant and we will definitely go back.'
p223
tp224
a(S'0-PJDm5vW9ZfHsF2mg_y6g'
p225
I6
S'we had the artichoke leaves for a starter and i would say they were ok. nothing special, i probably would not order those again.'
p226
tp227
a(g225
I7
S'for the positives, the service was great.'
p228
tp229
a(g225
I8
S'the menu was creative and everything seemed appealing on the menu.'
p230
tp231
a(g225
I10
S'both were great, the himachi was amazing!'
p232
tp233
a(g225
I14
S'definitely would order the himachi crudo, both entrees, and the profiteroles again.'
p234
tp235
a(g225
I15
S'we will definitely be back to try more dishes!'
p236
tp237
a(S'05v3bRo4BiZMNRII_hJ0PA'
p238
I1
S'usually, they have pretty solid food, and have a great beer selection.'
p239
tp240
a(g238
I14
S'thank god for the good beers to drown out my disgust.'
p241
tp242
a(S'0EUwsoR8sKcXUcq2KKA-oQ'
p243
I0
S'we love steak houses and are willing to pay top $$$ for a great steak!'
p244
tp245
a(g243
I1
S'this place has a great view from las vegas and ok service, ..... but....\nthe aged 20oz steaks were tough and totally bland!'
p246
tp247
a(g243
I2
S'we had better steaks at the black bear diner for much much less!'
p248
tp249
a(g243
I3
S'the servers think they are doing you a favor and it seems like they all think what a sucker of a customer is coming in!'
p250
tp251
a(g243
I4
S'the side dishes had no flavor!'
p252
tp253
a(g243
I8
S"don't waist your time and money, this place needs chef robert irvine for a restaurant rescue and the present chef needs to go or chance his talents!"
p254
tp255
a(S'0NDTXGpOTN_CdgLKDwbwHA'
p256
I0
S'great wings, three different styles and a myriad of different sauces and flavors.'
p257
tp258
a(g256
I1
S"food comes out quickly, even if it's busy and a rather complicated order when our son's baseball team comes by for after tournament festivities."
p259
tp260
a(g256
I2
S'they have a great beer selection, plenty of tvs to watch whatever event(s) are going on.'
p261
tp262
a(S'0OZoT5C44iWEQTMNnVkROg'
p263
I1
S'still as delicious as i remember and classics are still on the menu.'
p264
tp265
a(g263
I2
S'started the night with the uptown, a great drink if you like whiskey.'
p266
tp267
a(g263
I4
S'the caesar salad was delicious but typical of what you would expect, which is exactly what i wanted.'
p268
tp269
a(g263
I5
S'my husband had the carpaccio which was plated amazingly and tasted delicious.'
p270
tp271
a(g263
I6
S'for the main course i had the pan-roasted chicken, the skin had the perfect crisp yet the chicken was so moist.'
p272
tp273
a(g263
I7
S'i would highly recommend ordering it.'
p274
tp275
a(g263
I8
S'my husband had the mr. fish which last night happened to be halibut, it was served with the best tasting hummus i have ever have.'
p276
tp277
a(g263
I10
S'both these desserts were wonderful.'
p278
tp279
a(g263
I11
S'the ambiance is nice and was romantic in a booth.'
p280
tp281
a(g263
I12
S'the staff were very attentive and really took great care of us.'
p282
tp283
a(g263
I13
S"tarbell's is a great arizona restaurant that never changes which is why we love coming back there."
p284
tp285
a(S'0PQ8E0vCdw4ZHJmSNpcENA'
p286
I1
S'beautiful place and awesome menu.'
p287
tp288
a(g286
I2
S'prime rib and half price wine on wednesday is awesome'
p289
tp290
a(S'0S23kqkADnt0WuzgxHlqfw'
p291
I2
S'good food at reasonable prices.'
p292
tp293
a(g291
I3
S'also very clean.'
p294
tp295
a(S'0VAhNdU2VBOD7jVNhSeQ-g'
p296
I0
S'the pizza is great.'
p297
tp298
a(g296
I1
S'late hours service is terribly slow.'
p299
tp300
a(g296
I2
S'also, dirty cellphones are on the food prep surface, and they scoop their ice without a scooper.'
p301
tp302
a(S'0Y5_6CejQ8ospiDcTFX3Bg'
p303
I2
S'never eat in this place ever!!!!'
p304
tp305
a(S'0fpoZOoduzYVq8BLtAhxdg'
p306
I4
S'all tasted great and it was unfair because i got my favorite meat and cheese with perfect other stuff in sandwich.'
p307
tp308
a(g306
I5
S'little pricey came to a little over seven bones, but whatevs.'
p309
tp310
a(S'0rCeOpNX9kAyCyrBepgLpw'
p311
I1
S'we typically do carry out.'
p312
tp313
a(g311
I2
S'they are fast and friendly.'
p314
tp315
a(g311
I3
S'plus they can make it spicy for you.'
p316
tp317
a(g311
I4
S'orange chicken is the kids favorite.'
p318
tp319
a(S'0s4cFr02v1OuIapNPvWmRg'
p320
I1
S'the food is consistently good, the service is always friendly and fast , and the prices are reasonable.'
p321
tp322
a(g320
I3
S'brown rice is always can option and their brewed ice teas are yummy.'
p323
tp324
a(g320
I4
S'always a hit with my family!'
p325
tp326
a(S'0t0kkFIPvJbp2HGjvLvwKg'
p327
I5
S'all of the staff members we encountered during our dinner were friendly and attentive.'
p328
tp329
a(g327
I6
S'our server, beth, was sweet and knowledgeable about the menu.'
p330
tp331
a(g327
I8
S"beth was up front with us about her favorite salad being the farmer's salad, and it was a good call, but worth noting that if you want to add salmon to it, it will cost you a hefty $14 on top of the $14 for the salad alone."
p332
tp333
a(g327
I9
S'also, if you go for the burger, you have to request it with the fried egg... the menu makes it seem like it will come with the egg automatically (and our did not).'
p334
tp335
a(g327
I10
S'the burger was still awesome by the way, even without the egg!'
p336
tp337
a(g327
I11
S'the rest of the menu looks tasty too... from an 18 oz.'
p338
tp339
a(g327
I12
S'"niman ranch" bone-in ribeye to the salmon, scallops, grouper, and turkey pot pie and more... there really is something for everyone!'
p340
tp341
a(g327
I14
S"next time i'll try a different dessert though; the caramel apple upside-down cake wasn't all that... it was more like a simple spice cake; nothing special."
p342
tp343
a(g327
I16
S'i love that it offers a private room in back and a nice patio out front.'
p344
tp345
a(g327
I17
S"needless to say, our evening was great from start to finish, so i say giddy up... if you're looking for somewhere new to check-out, you can't go wrong with the (new version of) the pink pony!"
p346
tp347
a(S'0tn1FR6X5PqB_q8R30WJAA'
p348
I1
S'the food was competently prepared and my rib-eye was good.'
p349
tp350
a(g348
I2
S'the service was bad, the waiter forgot simple utensils, and after waiting 5 minutes for him to bring me a spoon, i had to ask someone else.'
p351
tp352
a(g348
I3
S'btw, the place was not very busy.'
p353
tp354
a(g348
I4
S'food was expensive so i had hoped for better.'
p355
tp356
a(S'12QWWU4c75qqjarb7htmVA'
p357
I0
S'amazing steakhouse at the top of the rio where there is a nightclub with a gorgeous view of the strip.'
p358
tp359
a(S'12QWWU4c75qqjarb7htmVA'
p360
I2
S'steaks are about $60 but worth it'
p361
tp362
a(S'12bupTNyycNPXhf9JXXyzw'
p363
I0
S"tarbell's is top notch in all areas!"
p364
tp365
a(g363
I1
S'food quality, service, ambience, amazing!'
p366
tp367
a(g363
I3
S'definitely try the spaghetti & meatballs as well as the mac n cheese, and even the pizzas are to die for.'
p368
tp369
a(g363
I4
S'and the burger too!'
p370
tp371
a(g363
I5
S'you really cant go wrong here.'
p372
tp373
a(g363
I6
S'warning the deserts here are huge (yet amazing).'
p374
tp375
a(g363
I7
S'one desert is enough for 2-3 people!'
p376
tp377
a(S'13VXiLU1IWao3MU-Fp3h6Q'
p378
I0
S'beware of frozen crawfish here.'
p379
tp380
a(g378
I14
S'btw, the two stars is for the waiter.'
p381
tp382
a(S'14rg-QqMErTn1Xq-cPymKw'
p383
I9
S"the seafood risotto was good, but a little too overwhelmed with the taste of salmon; but the tar's scotch beef, and the house made ribbon pasta with chicken fennel sausage were phenomenal; you can taste quality in every bite... yum!"
p384
tp385
a(g383
I10
S'and lastly, of course i always save room for dessert, i was stuck between the vanilla cheesecake with rosemary carmel, and the warm chocolate cake, both were wonderful!'
p386
tp387
a(g383
I11
S"a genuine thank you to tarbell's, and nathan, for making this dinner such a fantastic experience."
p388
tp389
a(S'183hgO5dwRSVb6n7IqabUw'
p390
I1
S"they're such a nice escape from all the other chain sub restaurants, especially subway, which i'm growing to detest."
p391
tp392
a(g390
I8
S"for only about $1.50 or $2 more you can make it a meal - but i'm trying to be healthy so i opted for water at home (insert grimace here cuz they have really good sweet tea)."
p393
tp394
a(g390
I10
S'lenny\'s reg sub is 7.5" and twice the size of subway toppings-wise, and their large is twice that at fifteen inches!'
p395
tp396
a(g390
I11
S'they also have a good selection of salads, as well as hot subs like philly cheesesteaks.'
p397
tp398
a(g390
I13
S"so, in short, if you're in the area of this or any of the other lenny's, give'em a shot - you're sure to be in for a treat."
p399
tp400
a(S'1DAJEjLveTYhFLkrb4f2ZA'
p401
I1
S'it is getting better each time.'
p402
tp403
a(g401
I2
S'service was severely lacking before, but has gotten better.'
p404
tp405
a(g401
I4
S'shrimp is great.'
p406
tp407
a(g401
I5
S'medium spice is not that hot.'
p408
tp409
a(S'1EH_JXTXqWXm3jkg43iVOA'
p410
I3
S'only the cardboard tasting bread of a subway ranks below it imho.'
p411
tp412
a(g410
I4
S'i wanted to like it but the bread was very similar to subway, very light in flavor and not too good.'
p413
tp414
a(g410
I6
S'the ingredients were decent but when it comes to restaurants, or even fast food if you want to call it that, i want to leave wanting to come back.'
p415
tp416
a(S'1G4QBXO1f-e1PXdPIvNsMw'
p417
I2
S'the place is hip and cool.'
p418
tp419
a(g417
I3
S'i ordered the turkey pot pie was the finest i have ever had .'
p420
tp421
a(g417
I4
S'great service too.'
p422
tp423
a(g417
I5
S'love the menu too.'
p424
tp425
a(S'1LI3l0M1rZcSa2m28nr1WQ'
p426
I0
S"$.49 cent per wing on tuesdays and thursdays - that's what brought me here when i had a huge craving for wings."
p427
tp428
a(g426
I2
S'the service was very mediocre.'
p429
tp430
a(g426
I4
S'the loaded potato skins were delicious, though.'
p431
tp432
a(g426
I9
S"i wouldn't recommend this place at all."
p433
tp434
a(S'1LMr7zwScKODvYABPNTzbw'
p435
I0
S'this is a wonderful thai restaurant.'
p436
tp437
a(g435
I1
S'we had a great lunch at a very reasonable price.'
p438
tp439
a(g435
I2
S'the salad was fresh and crisp with a well balanced dressing.'
p440
tp441
a(g435
I3
S'my ginger seafood combo was spectacular, with scallops done perfectly tender.'
p442
tp443
a(g435
I4
S"julie's beef curry was very flavorful."
p444
tp445
a(S'1O8fyATaHaR5MGCNxljI9g'
p446
I0
S'my girlfriend had braciole, which is a kind of beef roll with cheese inside of it cooked in a tomato sauce, and wow, was it fantastic.'
p447
tp448
a(g446
I2
S"i had the lasagna and the pasta was perfect; i couldn't stop from eating the whole thing and had no room for dessert."
p449
tp450
a(g446
I3
S'our waiter, john, was super nice, helpful with choices and paid just the right amount of attention.'
p451
tp452
a(g446
I5
S'we got out for $50 each sans tip; you can easily go much higher if you order a couple bottles of wine and some of the pricier meat dishes, which approach the $30 range.'
p453
tp454
a(g446
I6
S'pasta dishes are under $20, appetizers around $15.'
p455
tp456
a(S'1_dzUDchJyPVCylfj7Yu8A'
p457
I0
S'great stuff.'
p458
tp459
a(g457
I1
S'27$ for a thick peice of delicious prime rib with good tasting sides.'
p460
tp461
a(g457
I2
S'and the onion soup was really good.'
p462
tp463
a(S'1cdsYfIGpo_rYX_S_E77FA'
p464
I1
S'food was great, and the prices were decent, actually got a free cookie.'
p465
tp466
a(S'1dy9M9hzqKyjBOlPDdek8g'
p467
I0
S'these guys are back and still great.'
p468
tp469
a(g467
I1
S'never disappointed, never had a bad experience, good american food.'
p470
tp471
a(S'1sxYXd58qW9jTmcAN7on_A'
p472
I0
S'the food is pretty good.'
p473
tp474
a(g472
I1
S'pretty authentic.'
p475
tp476
a(g472
I2
S'sichuan cuisine (this is the right chinese way to spell szechuan) is known for their spiciness, the numbing spiciness.'
p477
tp478
a(g472
I3
S'this is the only chinese restaurant i have been to in phoenix that offers the real numbing spiciness.'
p479
tp480
a(g472
I5
S'the only thing is that their prices are a bit too pricy, for where they are, how "decorated" they are and their level of service.'
p481
tp482
a(S'1upkuLMe6u1EriPks_7qjw'
p483
I0
S"civilized, respectable locations don't charge separate covers for the gander and the goose."
p484
tp485
a(g483
I2
S'well, ri-ra, i used to be a fan of your irish authenticity, in terms of a cozy, low-key beer every now and then.'
p486
tp487
a(S'1xLMUHf8e6DEE8nYHgQlwg'
p488
I0
S'great green chilli burro enchilada style...like traditional mexican food here 50 years ago--and you can get it in a mini version, which is a normal portion.'
p489
tp490
a(g488
I1
S'very disappointed in the ground beef taco--meat blah, and a preformed taco shell that tasted like the boxed ones from the grocery store.'
p491
tp492
a(S'1xLMUHf8e6DEE8nYHgQlwg'
p493
I2
S'a plus is a cold glass that was served alongside the cold bottle of beer.'
p494
tp495
a(g493
I3
S'mini cheese crisp was great ans shareable for 2.'
p496
tp497
a(S'1y4HtevVgOjAdHApD7gljw'
p498
I1
S'as far as food goes, not on my list but the service is great!'
p499
tp500
a(S'2-MkK2D7cNVbqCPTDMC5Nw'
p501
I1
S'i had the scotch beef with the buttermilk potatoes and it was delicious.'
p502
tp503
a(g501
I2
S'the beef melted in your mouth.'
p504
tp505
a(g501
I3
S'we also had some type of fried bean, calamari, and a sampling of their salads and everything was to die for.'
p506
tp507
a(g501
I4
S'although it was pricey the meal was delicious and it was worth it.'
p508
tp509
a(g501
I5
S'i also like that our server was very confident in her recommendations and was willing to tell us something was better than something else.'
p510
tp511
a(g501
I6
S"you often get servers that are willing to tell you what is good and what is not on the menu while i don't think this place would have anything that was bad it was nice to know what the house specialties were"
p512
tp513
a(S'2-SD2lS2u_LXu5wUxma3Lg'
p514
I3
S'shrimp in the cocktail were at least 2 days old, not fresh steamed at all, like "rubber".'
p515
tp516
a(g514
I4
S'pizza was "black" on the entire bottom, burnt and overdone, cheese was like bubblegum, by no means a high quality mozz.'
p517
tp518
a(g514
I5
S'the sausage on the pie was bland and nothing special.'
p519
tp520
a(S'222iWesn78uL7uKMTHtY_g'
p521
I1
S'the candy bacon salad is a must-have!'
p522
tp523
a(g521
I2
S'the chocolate mousse was like eating a dream.'
p524
tp525
a(g521
I5
S'they let you order 1/2 orders!'
p526
tp527
a(S'22si6Ufpvh1qrjLaI5CiOQ'
p528
I1
S'the "scotch beef" (pot roast) is absolutely the best i\'ve ever had anywhere.'
p529
tp530
a(S'22si6Ufpvh1qrjLaI5CiOQ'
p531
I5
S'the drinks are good too.'
p532
tp533
a(g531
I6
S"others i've gone with say the fresh fish dishes are excellent as well."
p534
tp535
a(S'253RGdUq1LDl_c469LjVuw'
p536
I1
S'all of their menu items are delicious, but i highly recommend the gaeng kari and the orange chicken lunch special.'
p537
tp538
a(g536
I2
S"i've never actually had thai food anywhere else, but i still feel confident saying they're the best!"
p539
tp540
a(S'26s6IlQcr6C-dacECQ_20Q'
p541
I0
S'food was not good.'
p542
tp543
a(g541
I1
S'wife said the chicken tacos tasted horrible.'
p544
tp545
a(g541
I2
S'cheese enchilada tasted like dirt.'
p546
tp547
a(g541
I3
S'the bean burrito was ok but i had them add sour cream and guacamole.'
p548
tp549
a(g541
I4
S'the prices were way too high for this low quality of food.'
p550
tp551
a(g541
I5
S"i should have known better than to eat here when i saw they don't accept credit cards."
p552
tp553
a(S'28EF5Wcliya66WIqRV3TVQ'
p554
I1
S'i really do not have one complaint the food was stellar the fish was excellent flaky delicious wine the waiter suggested was excellent everything was wonderful.'
p555
tp556
a(g554
I2
S'lastly i will comment about the staff everyone we met or encountered was pleasant!'
p557
tp558
a(S'2Czl3yILhUw-jvJysKk6Ug'
p559
I1
S'i love an open kitchen where patrons can play audience to rising cooking flames and hot dishes ready to be served.'
p560
tp561
a(S'2DenvsteG7TlgC_GxYTF0Q'
p562
I1
S'the ambiance is great, with the traditional wood paneling everywhere.'
p563
tp564
a(S'2Fj0XKVdpjLTw0Of5Wj1LQ'
p565
I0
S'had a group of 20+ for a private party in the back room.'
p566
tp567
a(g565
I1
S'food was a 10+, service was outstanding.'
p568
tp569
a(S'2JFxOFk-K1CQsyph2Inlvg'
p570
I2
S'the buffet featured 72 items, starting with three soups.'
p571
tp572
a(g570
I3
S'i had a bowl of the cream of mushroom and one of the chili, & both were excellent.'
p573
tp574
a(g570
I4
S'next it was on to the salad bar, with lots of tasty things to put on your salad and to enjoy on the side, such as good cottage cheese.'
p575
tp576
a(g570
I5
S'over at the hot tables were a good number more things to enjoy, including numerous hot veggies, excellent fried chicken, saurkraut and sausage, fish, spaghetti with meat sauce and lamb roast with demi sauce!'
p577
tp578
a(g570
I6
S'desserts included very tasty soft ice cream, plenty of things to make it into a good sundae, plus a good variety of cakes, pies, cookies and so on.'
p579
tp580
a(g570
I7
S'this excellent buffet served up in their very comfortable, quiet (due to good acoustics) dining room is only $9.50 (srs.'
p581
tp582
a(S'2JvlqHmcTWK-Bv4A7sXeOA'
p583
I3
S'the food was just so/so.'
p584
tp585
a(S'2LAMjZT0yB6lizf-ALspMw'
p586
I2
S'one of my all-time favorites there are the spaghetti and meatballs.'
p587
tp588
a(g586
I4
S'our service last night was outstanding....as usual!'
p589
tp590
a(g586
I5
S'the place is indeed small.'
p591
tp592
a(g586
I6
S'reservations on the weekend are necessary well in advance.'
p593
tp594
a(S'2LAMjZT0yB6lizf-ALspMw'
p595
I9
S'otherwise, the pasta dishes are especially fantastic and worth a small inconvenience.'
p596
tp597
a(g595
I10
S'bon appetite!'
p598
tp599
a(S'2M2P9rDIyYiwXd1TnEXtcA'
p600
I2
S"basil's spicy pod thai  is to die for and its enough to feed two."
p601
tp602
a(g600
I3
S'great lounge with a solid wine selection.'
p603
tp604
a(g600
I4
S'more people should come here!'
p605
tp606
a(S'2N53CeBKGkCHyG0bopY4cw'
p607
I1
S'the atmosphere was great, included a piano player.'
p608
tp609
a(g607
I2
S'great romantic setup,  the food was delicious.'
p610
tp611
a(S'2OOuuzyaPiDVuWn48jgZJw'
p612
I2
S'the butternut squash ravioli was delicious.'
p613
tp614
a(g612
I3
S"everything tasted fresh and unlike many restaurants that use butternut squash tarbell's let the squash shine through rather than ladening it with sugar or other sweeteners."
p615
tp616
a(g612
I4
S'the sauce was a perfect accompaniment and the cheese on top melded delightfully with the ravioli and cream sauce.'
p617
tp618
a(g612
I5
S'the sage leaf on top was a wonderful touch as well.'
p619
tp620
a(g612
I9
S'the waiter was great.'
p621
tp622
a(g612
I11
S'i would definitely go back on a special occasion.'
p623
tp624
a(S'2OuBglt6bmpHci2AlZF5Hw'
p625
I0
S'this little place is located in a shopping center in anthem.'
p626
tp627
a(g625
I1
S"it's very small but really cozy and comfortable."
p628
tp629
a(S'2OuBglt6bmpHci2AlZF5Hw'
p630
I2
S'the place was immaculate.'
p631
tp632
a(g630
I4
S'on this trip i had the pad thai and it was excellent.'
p633
tp634
a(g630
I6
S'the lunch specials are a real bargain.'
p635
tp636
a(g630
I7
S'since thai food can be a bit on the spicy side i was very pleased to learn you could choose your level of "heat" from 1 to 5.  i like my asian food a bit spicy but my wife prefers mild:  dara thai lets you customize that level.'
p637
tp638
a(g630
I8
S"there aren't many really great places to eat in anthem (yet -- i still have hope) but this place is worth the visit."
p639
tp640
a(g630
I9
S'the service was also excellent.'
p641
tp642
a(S'2PJgwbN5eygvdJ5GzD-SWw'
p643
I3
S'i was traveling with friends & we had no reservation, but on a monday night the restaurant was quiet - we were seated immediately.'
p644
tp645
a(g643
I4
S'service was provided by tony who was excellent - attentive, knowledgable, and helpful in offering suggestions.'
p646
tp647
a(g643
I5
S'we picked steak tartare and lobster bisque for appetizers - the tartare rivaled any i have had in france and the bisque was amazing.'
p648
tp649
a(g643
I6
S'for an entree i had the lamb chops and my friends had the scallops - while awaiting dinner tony offered us to take wine & go out on the deck to see the cityscape; the view was great!'
p650
tp651
a(g643
I8
S'dessert was chocolate cake for me - amazingly good as well!'
p652
tp653
a(S'2bfoshJlkHgx9IFugJr3Bw'
p654
I0
S"this location specifically made me a fan of lenny's."
p655
tp656
a(g654
I1
S"i'd often stop in here before grocery shopping across the plaza to quench the munchies, shopping with the munchies is never a good idea."
p657
tp658
a(g654
I2
S'service is always prompt, while still being very personable.'
p659
tp660
a(g654
I5
S'the meat is sliced to order.'
p661
tp662
a(g654
I6
S'(not sitting between paper, pre-sliced, a la other sandwich shops) bread is baked fresh.'
p663
tp664
a(g654
I7
S"couldn't ask for more from a sandwich shop, other than slightly lower prices."
p665
tp666
a(S'2c1OVnZGrPWCYcDtGnNoQQ'
p667
I0
S'ive been all over the world \nand eaten in many fine and high dollar establishements \nand this the best steak and nice meaty scallops \ni have ever eaten \nworld class service \nand the best dang drinks ever \nin for a treat try the mules \ndont miss out on the baja style shrimp ceviche\ncant beat sitting and chatting with the owner and managnent \nsave room for the key lime pie'
p668
tp669
a(S'2d8tj8Z-RG19A3PBTEb8vg'
p670
I1
S'the food was always good quality and kitchen staff was awesome.'
p671
tp672
a(g670
I2
S'the selection of import beer was good and the bartenders could make up some crazy concoctions.'
p673
tp674
a(g670
I3
S'i always had a blast working on the weekends cuz the crowd was fun, the music good, and the tips = phenomenal!'
p675
tp676
a(g670
I4
S"one hint: if you don't want to wait 30 minutes to get a drink from the bartender then snatch up a cocktail waitress and they'll get in bout 5 minutes."
p677
tp678
a(g670
I5
S"allow time for them to fight the crowd to and from the bar and you'll have your drink in no time."
p679
tp680
a(g670
I13
S'and if you get a chance to dine outside on the patio take it!'
p681
tp682
a(g670
I14
S"it's always comfortable and has a seperate restroom out there which is nice since there's not an abundance of restrooms."
p683
tp684
a(S'2dMdwLZeJ6RrJ3Ng51P-rg'
p685
I0
S'a near perfect meal.'
p686
tp687
a(g685
I1
S'our waiter was a bit of a jerk.'
p688
tp689
a(g685
I2
S'the food and the chefs were great.'
p690
tp691
a(S'2f2l3Bglv_mNzRk3OMZ-Dg'
p692
I0
S"i'm on a mission to find a good chinese restaurant that is reasonably priced in chambana, and i was happy with south china restaurant."
p693
tp694
a(g692
I1
S'the good:\n-the steamed dumplings were delicious.'
p695
tp696
a(g692
I3
S'-the moo goo gai pan was also very good, i would definitely order it again as the dish has always been one of my favorites.'
p697
tp698
a(g692
I5
S'-the portion size was exactly what i was hoping for.'
p699
tp700
a(g692
I7
S"the bad:\n-the service wasn't fantastic."
p701
tp702
a(g692
I9
S'overall:\ni would definitely return, the food was very good, though i wish they delivered!'
p703
tp704
a(S'2jpxjYz-v11MvDsCs7Fz9A'
p705
I1
S'nice atmosphere inside and the wait staff very courtious.'
p706
tp707
a(g705
I3
S'the ribeye was very disappointing.'
p708
tp709
a(g705
I4
S'it was just ok. no seasonings or flavor.'
p710
tp711
a(g705
I6
S'chicken parmesan was ok. we paid alot of money for an average meal.'
p712
tp713
a(g705
I8
S"this place didn't fit the bill."
p714
tp715
a(S'2rKzAUZfJ9FvCkk5YQQqKw'
p716
I0
S'"great place for dining solo!"'
p717
tp718
a(g716
I1
S'"incredible food!"'
p719
tp720
a(g716
I2
S'"friendly staff!"'
p721
tp722
a(g716
I3
S'"my go-to restaurant on the camelback corridor."'
p723
tp724
a(g716
I8
S'nathan was our waiter and he was awesome.'
p725
tp726
a(g716
I14
S'the salmon was a huge hit -- i think everyone at the table had order envy over it -- but i did share!'
p727
tp728
a(g716
I15
S'it was grilled to perfection, topped with a local molasses/lime/honey glaze and served on a crispy potato cake.'
p729
tp730
a(g716
I16
S'the carrot cake was good but not amazing.'
p731
tp732
a(S'3-qQnimhVeYHuzfXo1SqJw'
p733
I0
S'officially, the best place to eat in phoenix.'
p734
tp735
a(g733
I4
S"service was exceptional... i've never had a restaurant call me the next day asking how everything was."
p736
tp737
a(g733
I6
S'the only disappointment was the fried bean app - skip it!'
p738
tp739
a(g733
I7
S'waiter had fantastic wine pairings for each course.'
p740
tp741
a(g733
I9
S'made me feel like i was in a great restaurant in nyc, except that the service was way better.'
p742
tp743
a(S'321SNCqAWNCWQ5_mXbgXOQ'
p744
I0
S'giving two stars only because the food was good.'
p745
tp746
a(g744
I2
S'pros: \ngood food\n\ncons:\nhorrible service\nlate food.'
p747
tp748
a(g744
I3
S'took almost an hr to get the food.'
p749
tp750
a(S'3A5jK284MfFQk8oxS2sTug'
p751
I2
S'initially the food was great, the service was ok. gradually the service went from ok to bad.'
p752
tp753
a(g751
I3
S'on our as last two visits even the food was bad.'
p754
tp755
a(g751
I5
S'both the manchurians were only warm, as opposed to being hot.'
p756
tp757
a(S'3A5jK284MfFQk8oxS2sTug'
p758
I7
S'the veg coins were not cooked properly.'
p759
tp760
a(g758
I8
S'the burnt garlic fried rice was good.'
p761
tp762
a(S'3EdgCvMG-k_FnXW0cm_dQw'
p763
I4
S'excellent service!'
p764
tp765
a(g763
I6
S'i highly recommend making reservations.'
p766
tp767
a(S'3Ejww5cB0Y_l7ToGicFdZQ'
p768
I3
S'hot pastrami and swiss cheese!'
p769
tp770
a(S'3QrypXOWpAlLd_RXuwCZoQ'
p771
I5
S'the food was amazingly good, especially the calamari and the vodka penne were my favorites.'
p772
tp773
a(g771
I7
S'peter our waiter was exceptional.'
p774
tp775
a(g771
I8
S"try this place you won't be disappointed."
p776
tp777
a(S'3_EcIY97QfIOgmyD0D5Ciw'
p778
I1
S'staff was friendly and the decar was nice.'
p779
tp780
a(S'3kbFoqsQGekQOBkpbrvw1w'
p781
I2
S'it has less of the quirky stylings of the dogs, the tables and chairs all match here, however the food is equally good.'
p782
tp783
a(g781
I3
S"the menu is italian influenced, you'll find pizza and pasta on the menu alongside dogs's staples like coley and skirt steak."
p784
tp785
a(g781
I5
S'the food here is incredibly good value and of exceptional quality, i have eaten here a lot and have never had a bad experience.'
p786
tp787
a(S'3mUmCPaWcxCjRM4-QmOoug'
p788
I0
S'this place is special.'
p789
tp790
a(S'3nwToZXKzxmAVaNhUDu_pA'
p791
I9
S"a light, but complex broth with wide egg noodles, campari tomatoes, spinach & a fennel chicken sausage that's just amazing."
p792
tp793
a(g791
I10
S'the warm bacon candy salad is a party in your mouth!'
p794
tp795
a(g791
I12
S"i've also had the salmon & sea bass (a special that night), both worthy of a repeat visit!"
p796
tp797
a(g791
I13
S'the atmosphere has a comfortable, non-pretentious, neighborhood vibe that welcomes you whether your in jeans or a dress.'
p798
tp799
a(g791
I14
S'hubs loves marks famous spaghetti & meatballs and the grilled ny strip, i mean really, how can you go wrong!'
p800
tp801
a(g791
I15
S"warm chocolate cake, profiteroles & creme brulee are just what the doctor ordered to put this one on the top of anyone's list!"
p802
tp803
a(S'3q68-kr8ivTPMGfPGKYm5w'
p804
I0
S'on the 50th floor with amazing views of the whole city !'
p805
tp806
a(g804
I3
S'we made reservations on the open table app and it was super easy.'
p807
tp808
a(g804
I6
S'good size restaurant, with a nice size bar and a very good wine list.'
p809
tp810
a(g804
I7
S'i had 1/2 dozen oysters and they were on the small side but very nice.'
p811
tp812
a(g804
I9
S'came with horseradish, lemon and seafood sauce.'
p813
tp814
a(g804
I10
S'not the toppings i would have preferred, however it was very tasty, and 10 out of 10 on that choice, my sister ordered the onion soup.'
p815
tp816
a(g804
I11
S'it was very cheesy, lots of onions and was made with a nice beef broth, also delicious.'
p817
tp818
a(g804
I12
S'there were about 10 appetizers on the menu and it was a tough call which to order, they all sounded great.'
p819
tp820
a(g804
I13
S'bread basket of lots of assorted warm rolls arrived with a great deal of butter arrived at the table and i hate to admit it, but i tried a couple - yummy, they were good!'
p821
tp822
a(g804
I14
S'great menu selection and it was hard to choose, but for my entree i had a 8 oz filet with a side of creamed spinach, it was rare, just the way i ordered it and it melted in your mouth it was soooooo good.'
p823
tp824
a(S'3q68-kr8ivTPMGfPGKYm5w'
p825
I15
S'my sister ordered the "trio"; steak, lobster and prawns.'
p826
tp827
a(g825
I16
S'the steak was a nice 4oz, the lobster was a nice size, but the "prawns" looked like shrimp....they were certainly on the small side, she received two and i was lucky enough to get one.'
p828
tp829
a(g825
I17
S'very delicious and buttery tasting, even though they were on the small side.'
p830
tp831
a(g825
I18
S'it came with potato and vegetables and they were kind enough to eliminate the potato and add some more vegetables.'
p832
tp833
a(g825
I19
S'for dessert sis had the creme br\\u00fbl\\u00e9e and said it was just great, i did manage to get my spoon in there and taste it, and yummy was that good!'
p834
tp835
a(g825
I21
S'it is a very pricy menu and the majority of entrees come a la carte.'
p836
tp837
a(g825
I22
S'all in all, service was great, food just wonderful and view from the top was stellar!!!!'
p838
tp839
a(g825
I23
S'even got to hop out on to the patio and it was really nice, small breeze and perfect for some photos of the city.'
p840
tp841
a(S'3zbsgICVzggfgj0BYu55Yw'
p842
I0
S'sad experience, way under staffed, waiter was pleasant but hurried and cared less what you ordering.'
p843
tp844
a(g842
I3
S"ridiculous for the price and ambiance of this restaurant i wo.uld suggest go to the lounge and enjoy the view but definitely plan dinner elsewhere as this one won't get a second chance from this las vegas local."
p845
tp846
a(S'41Uh-5XP9vH1zNa_c4rnlw'
p847
I0
S'that being said, caesar salad wasnt anything to write home about.'
p848
tp849
a(g847
I1
S'the fish and chips perfection.'
p850
tp851
a(g847
I2
S'crust was flaky as it should.'
p852
tp853
a(g847
I3
S'sweet potato tots are a delight.'
p854
tp855
a(g847
I4
S'they give you a good cup portion.'
p856
tp857
a(g847
I6
S'unless you add salt to bring out even more of the sweet flavoring.'
p858
tp859
a(g847
I11
S'the calamari was a bit over priced for the size.'
p860
tp861
a(g847
I12
S'it was served with banana peppers a balsamic vinegar dribble, and a red sauce that reminded me of salsa but with a more tomato base and no spice.'
p862
tp863
a(S'44yXnCWfRqxjYTSOz2kQUA'
p864
I1
S'me and my wife had the best steaks of our lives here t the voodoo lounge!'
p865
tp866
a(g864
I2
S'great service and the food was far beyond our expectations.'
p867
tp868
a(S'44yXnCWfRqxjYTSOz2kQUA'
p869
I3
S'and the prices were not that bad being as nice of a place as it was!'
p870
tp871
a(g869
I4
S"highly recommend for anyone wanting a special night to remember while having the best steaks i've had in vegas period!"
p872
tp873
a(S'4702XOIzvJ6A_YKz7ZVLSg'
p874
I1
S'best mussels that i have ever had.'
p875
tp876
a(g874
I2
S'tremendous food.'
p877
tp878
a(g874
I3
S'candied bacon salad was excellent.'
p879
tp880
a(g874
I4
S'scotch beef was tender and delicious.'
p881
tp882
a(S'4EnMpEDC3FwwLXB18EwBQg'
p883
I0
S'first off the food was great.'
p884
tp885
a(g883
I1
S'that alone gets this a good review for me.'
p886
tp887
a(g883
I3
S'secondly, this is a crawfish/shrimp/crab place, that is what is good.'
p888
tp889
a(g883
I4
S'if you want fried fish go to an english pub.'
p890
tp891
a(g883
I5
S'the crab was a little pricey but they were huge crab legs, not your small little legs.'
p892
tp893
a(g883
I6
S'honestly, one guy was complaining about not having a fork, guys, this is a seafood in a bag, get your hands dirty, place.'
p894
tp895
a(g883
I7
S'i really hope this place makes it because bottom line, the food is good.'
p896
tp897
a(g883
I8
S'the wall decorations will come later once people figure out how good this place is.'
p898
tp899
a(S'4X5WkBXGqDF5ZUUT7KNYZQ'
p900
I1
S'went for dinner the first time and food was great.'
p901
tp902
a(g900
I2
S"service was slow but it was like week 3 so i can't be negative about that."
p903
tp904
a(g900
I4
S'great drinks, wine and food specials till 7pm.'
p905
tp906
a(g900
I5
S'no complaints at all.'
p907
tp908
a(S'4XczQlVWvzE4LguYcU_1uQ'
p909
I0
S'go elsewhere.'
p910
tp911
a(g909
I1
S'the rio is not exactly known for their food and this is no exception, but will set you back at least $50.'
p912
tp913
a(S'4XczQlVWvzE4LguYcU_1uQ'
p914
I16
S'if you want a view, hit this up at night for the club.'
p915
tp916
a(S'4h1IZhnH3JwIYOJ3yiJGLw'
p917
I0
S'pricey but worth it!'
p918
tp919
a(g917
I1
S'excellent food and service!'
p920
tp921
a(g917
I2
S'overlooks the strip and clean upscale restaurant...would definitely go back!'
p922
tp923
a(S'4knHOJAXAJZTZsh-HkMt1Q'
p924
I7
S'the panag curry was overly flavored with mint and lacked little or no taste of coconut milk.'
p925
tp926
a(g924
I8
S'this place is okay for occasional takeout, but that is about it.'
p927
tp928
a(g924
I9
S"don't come all the way out to anthem for thai food, because you will not get it."
p929
tp930
a(S'4lW4UJ2el3SHIBcd32N7DA'
p931
I2
S'great customer service and great subs!'
p932
tp933
a(S'4lW4UJ2el3SHIBcd32N7DA'
p934
I3
S"i'd recommend this place to others"
p935
tp936
a(S'4miq2kvSgVZkNpIcxgg5bA'
p937
I0
S'what an amazing dinning experience.'
p938
tp939
a(g937
I1
S'the food is excellent the service was top notch and how can you beat the location.'
p940
tp941
a(g937
I2
S'the pink pony right in the heart of old town scottsdale must be on the list of great places to eat.'
p942
tp943
a(g937
I3
S'i would recommend this anyone visiting arizona.'
p944
tp945
a(S'4oLDJpoapJtZUB8Ue3j2iQ'
p946
I0
S"the filet mignon looks as if it's straight out of a magazine ad for filet mignons, perfection and how a filet mignon is supposed to look ."
p947
tp948
a(g946
I1
S'filet mignon tasted better than the one i ate in maui at ruth chris steakhouse.'
p949
tp950
a(g946
I2
S'absolute perfection.'
p951
tp952
a(g946
I5
S'drinks were refilled.'
p953
tp954
a(g946
I6
S'service was quick and professional.'
p955
tp956
a(S'4wRuohy4eAelIP6lRZz6PA'
p957
I15
S'the carpaccio was the most boring carpaccio i have ever had -- not bad, not good: boring.'
p958
tp959
a(g957
I16
S'insanely, there was too much meat!'
p960
tp961
a(S'4wRuohy4eAelIP6lRZz6PA'
p962
I17
S'just all meat and parmigiano -- a little more olive oil and some simple dressed greens would have made that dish so much better.'
p963
tp964
a(g962
I27
S"if you're an older, much more boring person in the world, this place is right up your alley."
p965
tp966
a(g962
I29
S'this place would probably be perfect for older rich people that have no real palate:  people that go to restaurants to improve their socioeconomic standing among their peers instead of discovering mind-blowing food.'
p967
tp968
a(S'506xd1foWU0Ud4jCduBz4g'
p969
I0
S'waste of our money!!'
p970
tp971
a(g969
I4
S"the cheapest crepe is $7 for the plain and if you want veggies or anything else it's $13."
p972
tp973
a(g969
I5
S'way way way overpriced for an outdoor market with benches.'
p974
tp975
a(S'54ELz59pXUXbFd7i7k3wlw'
p976
I0
S'the view is beautiful, but the restaurant is not worth the money.'
p977
tp978
a(g976
I4
S'the staff was not friendly and we had better service at the casino buffet.'
p979
tp980
a(g976
I7
S'the food was average.'
p981
tp982
a(S'56ihVgKyF8BJx1pTGxnrUA'
p983
I3
S"the nosh plate is very good, i love the roasted beet salad, and the pork chops we had are among the best i've eaten in a restaurant."
p984
tp985
a(g983
I4
S'the hamburger is amazing, too.'
p986
tp987
a(g983
I6
S'live music the other night, which was delightful.'
p988
tp989
a(S'599GMq-g04xWuELQBAjsPQ'
p990
I6
S'the subs were fantastic this time.'
p991
tp992
a(g990
I8
S'they will get my business again, their subs are tasty, with quality ingredients, and they are committed to customer service.'
p993
tp994
a(g990
I9
S'yes their prices are a bit higher then a place like subway, but you do get what you pay for!'
p995
tp996
a(S'59jvJf_z2UnmFTewTUBseg'
p997
I10
S'the staff was very friendly, the restaurant was clean, there were blown up photos of the pt.'
p998
tp999
a(g997
I11
S"pleasant side of the manasquan inlet and jenk's pier with surfers heading out, a nice touch of back home, but that's the best i can say."
p1000
tp1001
a(g997
I12
S"the staff was so personable i don't regret leaving them a tip even though they forgot my cheese."
p1002
tp1003
a(S'5A2DL0laWzTRL14icaS9nA'
p1004
I1
S'this place is terribly understaffed, on a friday night there should not be only 2 bartenders for a packed bar.'
p1005
tp1006
a(g1004
I2
S'easily takes 10 min to get a drink.'
p1007
tp1008
a(S'5U7urMiT9h_eTnlgv_uauw'
p1009
I19
S'i hope yelp keeps this place alive - it is that good!'
p1010
tp1011
a(S'5UsiAQvgZ6lpfEBfcrrvAw'
p1012
I0
S'when the menu includes "large intestine", you know it\'s got to be good.'
p1013
tp1014
a(S'5UsiAQvgZ6lpfEBfcrrvAw'
p1015
I3
S"every dish was excellent, absolutely exceptional in a totally positive way,  and i look forward to returning for more as soon as i've recovered from my foray to the szechuan side of the menu."
p1016
tp1017
a(g1015
I4
S'sure, "hot n sour" soup is a chinese restaurant staple, but this one took the eye-watering, nose-running spicy-hot cake.'
p1018
tp1019
a(g1015
I10
S'highly recommend.'
p1020
tp1021
a(g1015
I11
S'a genuine find.'
p1022
tp1023
a(g1015
I12
S'service was friendly and helpful.'
p1024
tp1025
a(g1015
I13
S'ambiance: bare, but clean.'
p1026
tp1027
a(g1015
I14
S"dining area and mens' room: clean."
p1028
tp1029
a(g1015
I15
S'conveniently adjacent to light rail stop.'
p1030
tp1031
a(g1015
I16
S'open until 10pm.'
p1032
tp1033
a(g1015
I17
S'be warned of easy-to-miss narrow driveway between buildings off north side of apache.'
p1034
tp1035
a(S'5VMhcWSni4pqsQ-e5p6UJg'
p1036
I0
S'this place is amazing!!'
p1037
tp1038
a(g1036
I1
S'the food is excellent.'
p1039
tp1040
a(g1036
I2
S'scotch beef with mashed potatoes is my favorite, but everything i have had has been just as good... pepper steak, kale chips, ceasar salad, etc.'
p1041
tp1042
a(g1036
I3
S'the scallops are the best i have ever had.'
p1043
tp1044
a(g1036
I4
S'the owner is always in talking with customers, the bartenders are awesome, service is incredible.'
p1045
tp1046
a(g1036
I5
S'very warm and welcoming atmosphere.'
p1047
tp1048
a(g1036
I6
S'you can have a half order of anything on the menu, whether you are not very hungry or want to try two different things!'
p1049
tp1050
a(S'5da-9hR4LeMQ4cFygYABXQ'
p1051
I2
S'the atmosphere was typical for an irish bar, and we found the staff friendly and amazingly quick for as busy as it was.'
p1052
tp1053
a(g1051
I5
S'the shepard pie was especially good and the sweet potato tater tots with a side of guinness bbq sauce was a hit with entire table.'
p1054
tp1055
a(S'5hyXaELZOyxiyBS3hHUohg'
p1056
I1
S"only reason i didn't give voodoo steakhouse zero stars is because it has a nice view."
p1057
tp1058
a(g1056
I3
S"the glass was not frosty and the heineken was so skunky that it tasted like it was in storage for months...couldn't drink it."
p1059
tp1060
a(g1056
I5
S'nice butter, but bread could cut glass.'
p1061
tp1062
a(g1056
I8
S'meal came out without any sauce on the side and barely any on the meat.'
p1063
tp1064
a(g1056
I10
S'meat was dry and overcooked which is a huge negative for a steakhouse.'
p1065
tp1066
a(g1056
I11
S'the macc and cheese could have been from any mediocre buffet and the broccoli was practically raw.....way too crunchy and tough.'
p1067
tp1068
a(S'5k_6P-Ipz2O7jYcOac2ldw'
p1069
I0
S'top notch food (apparently they have a renowned chef), decent service, prices are as fancy restaurants go, great ambiance, i love it.'
p1070
tp1071
a(g1069
I1
S"you really can't go wrong with anything on their menu."
p1072
tp1073
a(g1069
I2
S'everyone at our table left satisfied.'
p1074
tp1075
a(g1069
I4
S"the beets were deliciously sweet but a little on the smaller side so it'd be perfect before your main course."
p1076
tp1077
a(g1069
I5
S'the pony salad was a little more sizeable, less sweet as it was topped with blue cheese and bacon bits, and the smoked salmon was a fantastic touch.'
p1078
tp1079
a(g1069
I9
S'the ambiance was great, it was a quiet night and the music was pleasant - not too loud but audible.'
p1080
tp1081
a(S'5k_6P-Ipz2O7jYcOac2ldw'
p1082
I10
S'the layout was gorgeous and the home plate at the entrance was definitely very unique.'
p1083
tp1084
a(S'5lPNGR-JRlSPKPHdYprglA'
p1085
I1
S'they have a great crap special and they are on top of their crab game!'
p1086
tp1087
a(g1085
I2
S"they don't have much of variety on other food choices but if you are looking to get good fresh crab this is your place!"
p1088
tp1089
a(S'5nREKhkIXZPo6JgkmbBtAQ'
p1090
I3
S"everyone's prime rib was huge and tasty looking, lots of positive feedback on the prime rib, vege's were asparagus which had a sauce on them and were not crunchy and looked gray.. not fresh and green.. 1 star there."
p1091
tp1092
a(g1090
I5
S'salads didnt come with our meals which for $28 should have so 1 star for value in my opinion, but the salad was delish!'
p1093
tp1094
a(g1090
I6
S'ranch was yummy and tasted homemade.'
p1095
tp1096
a(g1090
I7
S"so all in all if you go and order prime rib and dont mind paying $5 extra for a salad then you should have a very good time.. i would not recommend the filet, go down the road and eat at feugos inside the fiesta, much better and you get a salad and the vege's are fresh and tasty."
p1097
tp1098
a(S'5oGhdsuHuiQXamWdhpiroQ'
p1099
I0
S'pizza express do the best dough balls and garlic bread ever, they get 4 stars for that alone!'
p1100
tp1101
a(g1099
I4
S'you know what your getting and it is tasty.'
p1102
tp1103
a(S'5sj8LuAWFgfgjiHV6tTjZQ'
p1104
I4
S'the sauce was out of this world.'
p1105
tp1106
a(g1104
I10
S"it was, by far, the juiciest, best prepared chicken dish i've ever had."
p1107
tp1108
a(S'5sj8LuAWFgfgjiHV6tTjZQ'
p1109
I12
S'the atmosphere felt a tad dated but it almost made it all the more charming... kinda like we were stepping back in time a bit.'
p1110
tp1111
a(S'5swbGEiErjYktFlufOVaDA'
p1112
I0
S'the buffet itself is worth it for the all you can eat crab legs.'
p1113
tp1114
a(S'5vkrX1Juu6qSS9a9q43XhA'
p1115
I2
S'every visit is just as good as the last if not better.'
p1116
tp1117
a(S'5zP-msrvkW7IUOBUzwdMKA'
p1118
I0
S'lovely heirloom tomato salad, but i would have been very happy to share it, because it was so large.'
p1119
tp1120
a(g1118
I1
S'the view of vegas was wonderful, but the prices were a little steep.'
p1121
tp1122
a(S'600-d4GtmcSW2WwT-pk2Sg'
p1123
I0
S'great food, old vegas feel.'
p1124
tp1125
a(g1123
I1
S'try the pennealavodka or the steak.'
p1126
tp1127
a(g1123
I3
S'wes is the waiter to ask for!'
p1128
tp1129
a(S'60FY-3G-o_Hsa2pY3yKQCQ'
p1130
I1
S'they do everything right.'
p1131
tp1132
a(g1130
I2
S"the food is amazing the service is amazing and the overall customer service can't be touched."
p1133
tp1134
a(g1130
I3
S'this establishment is the whole package.'
p1135
tp1136
a(g1130
I4
S'a few of my favorite dishes are the scotch beef and the chicken sausage pasta.'
p1137
tp1138
a(g1130
I5
S'the cheese pizza is divine as well.'
p1139
tp1140
a(g1130
I6
S'no wonder mark beat cat cora on iron chef america.'
p1141
tp1142
a(g1130
I7
S'try this place you will not be dissappointed!'
p1143
tp1144
a(S'60LmU8XCOm_ZaZP5qs2-5Q'
p1145
I5
S'the pimento cheeseburger i had was also very good!'
p1146
tp1147
a(S'64cY1Z-Kkccy_8Qy3_GZTQ'
p1148
I0
S"it really doesn't matter if you are coming to eat, happy hour, meet up before going out or hitting this place late night ri ra is a great spot in charlotte."
p1149
tp1150
a(g1148
I3
S'brunch here is amazing, as well as lunch and dinner.'
p1151
tp1152
a(g1148
I4
S'the bar tenders are really attentive and the drinks are well priced.'
p1153
tp1154
a(g1148
I5
S"go here and you won't regret it!"
p1155
tp1156
a(S'65bkEkGp8DWCXsRMwRF7BA'
p1157
I0
S'stopped in on whim for happy hour.'
p1158
tp1159
a(g1157
I1
S'had delicious fish tacos.'
p1160
tp1161
a(g1157
I2
S'all small plates were half off for happy hour making this place a steal for good food.'
p1162
tp1163
a(S'66_bBhcbtpf4_CcMCftzUQ'
p1164
I0
S"the bread was blase, but the vegetables were among the best as well as the salmon and then the tiramisu was the best i've ever had, they make it on site."
p1165
tp1166
a(g1164
I1
S'the service was over the top, the atmosphere is light and airy, the menu is veal heavy and i loved my experience here.'
p1167
tp1168
a(g1164
I2
S'there was a nice gentleman playing piano and lots of wait staff.'
p1169
tp1170
a(S'6F5vS9netV1Gm7AOqMuG7A'
p1171
I1
S'the food is always good.'
p1172
tp1173
a(g1171
I2
S'sometimes they have large parties that come in by bus unexpectedly so there can be a challenge for the waiters.'
p1174
tp1175
a(g1171
I3
S'dessert is always good.'
p1176
tp1177
a(g1171
I4
S'eclectic place, very old vegas.'
p1178
tp1179
a(g1171
I5
S'one waiter names wes is exceptional!'
p1180
tp1181
a(S'6H2j1Pk6PEc2tdN18QK71Q'
p1182
I0
S'picked up a pizza tonight and it was terrible.'
p1183
tp1184
a(g1182
I5
S'the crust was chewy not crisp at all.'
p1185
tp1186
a(S'6LqPr8U2X0xEgUivNdACZw'
p1187
I6
S'this was a great choice, the chicken was cooked perfect and full of flavor.'
p1188
tp1189
a(g1187
I7
S'not greasy just crunchy and delicious.'
p1190
tp1191
a(g1187
I10
S'holy hell this was good.'
p1192
tp1193
a(g1187
I11
S'tasted like pumpkin pie with the graham cracker around the rim.'
p1194
tp1195
a(g1187
I12
S'good choice for sure.'
p1196
tp1197
a(g1187
I13
S'this was a good stop.'
p1198
tp1199
a(g1187
I15
S'jump on the pink pony and enjoy'
p1200
tp1201
a(S'6NW4tCFM-WoVc2CsjENmfQ'
p1202
I0
S'the subs were a little more money than subway but worth the price.'
p1203
tp1204
a(g1202
I1
S'this place is in a new urban development that looks great.'
p1205
tp1206
a(g1202
I2
S"however, this restaurant is a bit noisy and the staff had to yell to get my order (i personally don't like getting yelled at before i eat... i need soft, calm voices)."
p1207
tp1208
a(S'6NW4tCFM-WoVc2CsjENmfQ'
p1209
I5
S"the food was great, the bread was my favorite because it was fresh and very soft (fluffy clouds from heaven); i'll be back."
p1210
tp1211
a(S'6YneHLieBPpJN-ITCAG3ww'
p1212
I10
S'the sauce must contain mustard.'
p1213
tp1214
a(S'6Yo038ipIHdxQQv9QXW9WQ'
p1215
I0
S"the place is scary, if you're worried about not having windows that is."
p1216
tp1217
a(g1215
I1
S"inside, you'll find large family style tables and fluorescent lighting."
p1218
tp1219
a(g1215
I2
S'you will find surly waitresses who look at you like they really hate you as you order.'
p1220
tp1221
a(g1215
I4
S'you came for the dirt cheap tsing tao beer (thank goodness they have it to help quell the heat).'
p1222
tp1223
a(g1215
I5
S"half of the dishes on the menu won't be available."
p1224
tp1225
a(g1215
I7
S"for main dishes you can't go wrong with their cumin lamb."
p1226
tp1227
a(g1215
I8
S'if you can bring someone who speaks chinese.'
p1228
tp1229
a(g1215
I9
S"it's a northern chinese restaurant, so the few cantonese dishes (like walnut shrimp) are a disappointment."
p1230
tp1231
a(g1215
I11
S'brave the scary parking and lack of ambiance.'
p1232
tp1233
a(g1215
I12
S'eat lamb, breath fire and drink beer.'
p1234
tp1235
a(S'6acTSWhdkRGjvMu25B4Mjw'
p1236
I1
S'they are only open until 8 pm m-th and till 8:30 on fridays.'
p1237
tp1238
a(g1236
I5
S'still good food but major bummer.'
p1239
tp1240
a(S'6bYVb3a5mEjADI0-zTgDrA'
p1241
I0
S'pizza sola offers tasty and innovative pizza by the slice, in a clean and modern looking environment.'
p1242
tp1243
a(g1241
I1
S'the slices are huge, but thin (one is enough for me for a meal).'
p1244
tp1245
a(g1241
I2
S"i've gotten the greco twice, which is white pizza with tomatoes, spinach, feta, and some wonderful herbs and garlic."
p1246
tp1247
a(g1241
I3
S"the crust is cracker-crispy, and they warm up your slice after you order it so it's always served at the perfect temperature."
p1248
tp1249
a(g1241
I4
S'i think it maybe runs you $3-4 bucks per slice.'
p1250
tp1251
a(g1241
I6
S'by and large, it tastes fresh and is surprisingly not-heavy in your stomach.'
p1252
tp1253
a(S'6eqb8j8FTcPs7fb2NU_q8Q'
p1254
I0
S'got terrible service and attitude from zombies behind the counter.'
p1255
tp1256
a(g1254
I1
S"the food is good just don't expect any with a brain stem to help you out."
p1257
tp1258
a(S'6gMvUMU-ePd-v71x2xMH3g'
p1259
I2
S'the rib eye steak was cooked perfectly and my girlfriend reported the seafood platter was unbelievable.'
p1260
tp1261
a(g1259
I3
S"even the tiramisu was good (although not as coffee flavored as we're used to)."
p1262
tp1263
a(g1259
I4
S"the only thing i didn't care for - and this is personal preference - the kitchen adds bacon to just about everything: for me it was the salad and the risotto rice."
p1264
tp1265
a(g1259
I5
S'oh, the appetizers were incredible too, especially the sauteed portabello mushrooms.'
p1266
tp1267
a(g1259
I6
S"can't forget the service, which was an a++."
p1268
tp1269
a(g1259
I7
S"don't just drive by, check this place out."
p1270
tp1271
a(g1259
I8
S"especially if you have points on your player's card!"
p1272
tp1273
a(S'6jxyxRXReBCtWzCChrY9LA'
p1274
I0
S'very nice location!'
p1275
tp1276
a(g1274
I1
S'a little higher class than the one on ray, as this place used to be a steakhouse.'
p1277
tp1278
a(S'6jxyxRXReBCtWzCChrY9LA'
p1279
I2
S'great indoor/outdoor bar.'
p1280
tp1281
a(g1279
I3
S'and the new strippers chicken baskets are amazing!'
p1282
tp1283
a(g1279
I4
S'friendly staff, yummy beers on tap.'
p1284
tp1285
a(S'6mSUt3z39vtdSwq7cgeAtg'
p1286
I5
S"bonus is they don't have a specific time for breakfast or lunch... they offer curly fries and they have plenty of offerings that i don't have to specify no tomato on."
p1287
tp1288
a(S'6zfN-4Co9pXHSQNwcJ03mQ'
p1289
I2
S"one of arizona's best restaurants."
p1290
tp1291
a(S'73GNaRzVXTH75yaInmV2Qw'
p1292
I1
S'i ordered the moo shoo chicken and it was yummy.'
p1293
tp1294
a(g1292
I3
S'the green beans were amazing though.'
p1295
tp1296
a(g1292
I10
S'the menu was very helpful because it was marked by spiciness.'
p1297
tp1298
a(g1292
I12
S'the food looked amazing when it came out and i tried everything i could.'
p1299
tp1300
a(g1292
I15
S'here are some item that others have recommended:\nporkbelly in the appetizers\neggplant\nglazed green beans\nkung pao chicken'
p1301
tp1302
a(S'77c9wz87UeUzmAwJjYSeSA'
p1303
I3
S'the size of this appetizer was disarmingly huge!'
p1304
tp1305
a(g1303
I7
S'we did some splitting and switching on our entrees, and honestly...they were good -- totally solid.'
p1306
tp1307
a(g1303
I10
S"overall i really enjoyed the atmosphere and the food was good; i wouldn't hesitate to go here for a business dinner or accept an invitation to go, but i won't be picking it in the near future."
p1308
tp1309
a(S'7BQUgmcdX3p4kLwI31MVCQ'
p1310
I2
S'i had the scotch beef and my wife had the salmon, great flavor and quality.'
p1311
tp1312
a(g1310
I3
S'the service was very good, our waiter was very knowledgeable about the menu and made great recommendations on what to order.'
p1313
tp1314
a(g1310
I4
S'very glad that we chose this place while in phoenix.'
p1315
tp1316
a(S'7FASrs-VnLVNQ2mrn6oaww'
p1317
I8
S'the aforementioned cheesecake as well as chocolate brownie.'
p1318
tp1319
a(g1317
I9
S'the ambience here is nice in a relaxed way.'
p1320
tp1321
a(g1317
I10
S'huge tall ceilings and mainly white, white, white walls leave it feel very airy and open although it does get warm in a comfortable way.'
p1322
tp1323
a(g1317
I11
S'the waiters were all really friendly and prompt, despite that at the beginning of the evening there was only one guy one and it was busy at 5pm.'
p1324
tp1325
a(g1317
I13
S"now, the dogs provide good grub with slightly 'different' dishes (the regular the dogs offers stuffed lamb's heart for example) but at affordable prices."
p1326
tp1327
a(S'7FASrs-VnLVNQ2mrn6oaww'
p1328
I21
S'and you need to order chips seperately.'
p1329
tp1330
a(g1328
I30
S'but the portion was really, really quite small.'
p1331
tp1332
a(g1328
I33
S"and i think if you'd ordered something different that was more filling naturally it would be good value for money."
p1333
tp1334
a(g1328
I35
S'the tiramisu for dessert was scrummy too.'
p1335
tp1336
a(g1328
I36
S"but again, it's just a slice of tiramisu in a bowl that's slightly too small for it (much in the same way that if you ate it everyday, your jeans would start to be just that tad too tight)."
p1337
tp1338
a(g1328
I37
S"if you expect good food but without the fuss of nice presentation, but rather how you'd serve it yourself at home, then you'll be a happy bunny."
p1339
tp1340
a(g1328
I42
S'the pizzas are also on the average-portion size (again a good thing) which i noticed from other diners.'
p1341
tp1342
a(S'7JIFj4B1DOYUFgcPokc0PQ'
p1343
I0
S'a must on any visit to jean-talon market and my favourite crepe spot in montreal, mostly because the crepes served here feel authentically qu\\u00e9b\\u00e9cois.'
p1344
tp1345
a(g1343
I1
S'egg and ham, apple and maple syrup, potato and something... everything on the menu is simple, yet delicious.'
p1346
tp1347
a(g1343
I2
S'plus, they do buckwheat creeps, which are gluten free!'
p1348
tp1349
a(g1343
I3
S'stop by and give it a try.'
p1350
tp1351
a(g1343
I4
S"you won't be disappointed."
p1352
tp1353
a(S'7SaxtQlIbU6GUJWz6F6HeA'
p1354
I0
S'always good food, and a great selection of beer that will satisfy'
p1355
tp1356
a(S'7SorPHCj9zWuFXQFY_6_Vw'
p1357
I8
S'add to that, the overpowering amount of vinaigrette dressing on what looked like pretty arugula and the carpaccio was almost indiscernible.'
p1358
tp1359
a(g1357
I10
S'what arrived was a very full bowl of broth that was very very rich with butter and for the first three spoonfuls was luxurious, but way too rich to be able to enjoy it in the quantity served.'
p1360
tp1361
a(g1357
I11
S'the fresh noodles that i had to search through the broth were stuck together in one mass under a small pile of canned tomatoes, the accompanying spinach also lost somewhere in the broth.'
p1362
tp1363
a(g1357
I12
S'the sausage looked like a breakfast pattie that had been browned on one side and then broken into pieces.'
p1364
tp1365
a(S'7WNZNVPj-g5Z0_ABRgd0yg'
p1366
I14
S'everyone agreed that the food was lovely and reasonably priced but the service certainly left a lot to be desired.'
p1367
tp1368
a(S'7czedYKa1qmOpQV_MLjfHw'
p1369
I2
S'the wine was good, and so was my meatball pizza.'
p1370
tp1371
a(g1369
I5
S'the chocolate mousse was outstanding but the ice cream in the profiteroles was gelatinous.'
p1372
tp1373
a(S'7sEAhmdBMxBqNb5pk47vHA'
p1374
I2
S'the wait staff is super nice and will remember you after you go one time.'
p1375
tp1376
a(g1374
I3
S"plus, i like how it's all old school and they serve you your iced tea on a saucer with a spoon and you get a yummy dinner roll with crackers next to your salad."
p1377
tp1378
a(g1374
I5
S"oh yeah, the air conditioning is out of control if you're looking for a place to cool off in the summer."
p1379
tp1380
a(S'80ZRRt6GCHshIlrWcJaf9w'
p1381
I4
S'the service was very attentive.'
p1382
tp1383
a(g1381
I5
S'the view was awesome as well.'
p1384
tp1385
a(S'84istL3L2e43HUrFHtE9wQ'
p1386
I0
S'the oldest restaurant in scottsdale is something worth checking out.'
p1387
tp1388
a(g1386
I1
S'the service is amazing.'
p1389
tp1390
a(g1386
I2
S"the food isn't maestros so don't walk in expecting something it is not."
p1391
tp1392
a(S'86LOpra04naY-xLMaX0yEw'
p1393
I0
S'tried the american chopsuey, tad too much sweet sauce for my taste.'
p1394
tp1395
a(g1393
I1
S'the fried rice was spiced right'
p1396
tp1397
a(S'8FwqFcl2Ez1NoovZr1XoHA'
p1398
I3
S'the parking is located on the east or south side of the building.'
p1399
tp1400
a(g1398
I5
S'they are the best subs we have had.'
p1401
tp1402
a(g1398
I6
S'they are packed with meat and cheese.'
p1403
tp1404
a(g1398
I7
S'might be little pricier then blimpie, but with it due to the over load of meat!'
p1405
tp1406
a(g1398
I8
S"check out a jersey mike's near you!"
p1407
tp1408
a(S'8HRZznFT1tYXXjly45kB2Q'
p1409
I4
S'i though this was a good restaurant, and i liked the over the top whisky bread pudding.'
p1410
tp1411
a(g1409
I6
S'the place has a great atmosphere.'
p1412
tp1413
a(g1409
I7
S'they also picked up our wineries the next day which was nice of the wine buyer.'
p1414
tp1415
a(S'8MT-jnwNj0kYnkBAD_y6TQ'
p1416
I2
S'the prices of drinks are probably a bit higher here, so you may wish to get a base going before you find yourself here.'
p1417
tp1418
a(g1416
I3
S'the bartender was pretty nice to me.'
p1419
tp1420
a(S'8OARXBcK-X4Ykf5CDq4m7Q'
p1421
I2
S'this was the ultimate in sugary, saucy, syrupy grossness.'
p1422
tp1423
a(g1421
I3
S'i had the pad thai which tasted so syrupy sweet i wanted to gag.'
p1424
tp1425
a(g1421
I5
S'both meals were given the official suburban american sugar-salt-fat-overload-treatment.'
p1426
tp1427
a(g1421
I7
S'there is no ambiance to speak of (its in a strip mall, and the decor is your usual average suburban diner.'
p1428
tp1429
a(g1421
I8
S'the bathroom (one) was pretty dirty and gross.'
p1430
tp1431
a(S'8PRhFeNksbYq45ay0_XKYA'
p1432
I0
S'the view is extremely good, the wait service was excellent (thanks sam) its nice to have an engaging but not overbearing waiter.'
p1433
tp1434
a(g1432
I1
S'our food was very good...the filet melted as soon as it hit our mouths and the seared scallops...wow.'
p1435
tp1436
a(S'8SX8bCcwmUf3-qqKC1lqBA'
p1437
I0
S'love the crab--all you can eat.'
p1438
tp1439
a(g1437
I1
S'other items, veggies, great salad bar, soups and a variety of desserts and ice cream soft serve machine.'
p1440
tp1441
a(g1437
I2
S'wait staff very friendly and.efficient.'
p1442
tp1443
a(S'8Spqqn02HVRktVCLnZY8Ag'
p1444
I0
S'the waitress is suck.'
p1445
tp1446
a(g1444
I1
S'and the dishes tastes not so good \nbad restaurant forever.'
p1447
tp1448
a(g1444
I2
S'maybe u guys can choose golden harbor to eat the chinese restaurant\ndo not come to this bad restaurant\nyou will be regret for your choice'
p1449
tp1450
a(S'8V7sk8UNeQp0F3EJVLhJGA'
p1451
I6
S'the beef is nicely marinated.'
p1452
tp1453
a(g1451
I7
S'i also had the chicken taco and it was just perfect.'
p1454
tp1455
a(g1451
I10
S'my pet peeve is hot food coming out warm or room temp!'
p1456
tp1457
a(S'8VYXDx4qKxZLVCfsHeT_9g'
p1458
I5
S'while the slices were large and the flavors were okay (albeit nothing special), the crust was soft and floppy (i prefer a crispy crust for thin-crust pizza) and kind of soggy from the sauce on top.'
p1459
tp1460
a(S'8VYXDx4qKxZLVCfsHeT_9g'
p1461
I6
S'also, the toppings were prone to sliding off, which always annoys me when eating pizza.'
p1462
tp1463
a(S'8cy7kr92chZSOUDoyt3y3w'
p1464
I0
S'the most disguisting crap ive ever eaten!'
p1465
tp1466
a(g1464
I1
S'gross greasy cheese, low quality crust, and virtually no sauce.'
p1467
tp1468
a(g1464
I2
S'not to mention a complete rip off.'
p1469
tp1470
a(g1464
I3
S'asked for extra sauce and they charged $2.75 without telling me and gave me extra cheese!'
p1471
tp1472
a(S'8d5C6mAEonHtKUirMpdxvQ'
p1473
I0
S'the place exemplifies the casual elegance that phoenix is renowned for.'
p1474
tp1475
a(g1473
I1
S'this is the type of place you eat at before a night at the symphony.'
p1476
tp1477
a(g1473
I2
S'the food, the service, and the atmosphere are all excellent.'
p1478
tp1479
a(S'8jRIZsysu-YBXZlkm04U2w'
p1480
I0
S'great, huge new york slices are to be had at pizza sola and the toppings are interesting enough to set them apart from other shops.'
p1481
tp1482
a(g1480
I1
S'one slice could be considered two normal slices so bring your appetite.'
p1483
tp1484
a(g1480
I2
S'my only complaint is that their pizza is a bit on the pricy side.'
p1485
tp1486
a(g1480
I3
S'everything about it was fresh, however.'
p1487
tp1488
a(g1480
I4
S'their baked chicken wings were to die for.'
p1489
tp1490
a(g1480
I5
S'i usually only get chicken wings that are deep fried, giving them that familiar crispiness.'
p1491
tp1492
a(g1480
I6
S'however, pizza sola roasts theirs in their insanely hot pizza oven, giving them a nice charred skin that is packed full of flavor.'
p1493
tp1494
a(g1480
I8
S'prices aside, pizza sola knows how to make a pie.'
p1495
tp1496
a(S'8lvvax7VC2LaWYENwTw1lQ'
p1497
I1
S'the pasta is fresh and surprisingly light.'
p1498
tp1499
a(g1497
I2
S'amazing sauce!'
p1500
tp1501
a(g1497
I3
S'the service is always attentive but not overbearing.'
p1502
tp1503
a(g1497
I4
S"it's off the strip, but worth the drive or cab fare."
p1504
tp1505
a(S'8nLGzotQ5RduPqwUEI7uIw'
p1506
I2
S'hmm, previous poster found menu uninspired or food bland.'
p1507
tp1508
a(g1506
I7
S'other menu options included big eye tuna tartare with taro chips and ginger cucumber relish or cornmeal crusted calamari with salsa verde and whole grain mustard sauces for starters.'
p1509
tp1510
a(g1506
I8
S'and a double-cut pork chop with butternut squash-thyme bread pudding...grilled scottish salmon on a crispy potato cake with molasses lime glaze.. several pizzas...for entrees.'
p1511
tp1512
a(g1506
I9
S'and our sublime dessert was a chocolate cake with house-made ice cream.'
p1513
tp1514
a(g1506
I10
S'sides included "maple glazed carrots & cranberries" and "mark\'s mom\'s mac & cheese".'
p1515
tp1516
a(g1506
I12
S'excellent service (they also had a wonderful reisling by the glass -- hard to come by), streamlined, upscale surroundings -- all in all, a terrific dining experience.'
p1517
tp1518
a(S'8nPjYUQT1nnWeKDKMK_WHg'
p1519
I0
S'i love this place.'
p1520
tp1521
a(g1519
I2
S"the food is good, but it's the feel of the place i really like."
p1522
tp1523
a(g1519
I3
S'a lot of older regulars that the owner pals around with.'
p1524
tp1525
a(g1519
I4
S'the owner and his wife are always there.'
p1526
tp1527
a(g1519
I5
S'breakfast is available all day, and you can get a good variety for a decent price.'
p1528
tp1529
a(g1519
I6
S"the lunches looked good and home-style, but i'm just a breakfast girl."
p1530
tp1531
a(S'8n_SFFAyDa0q9H6Gikr2JQ'
p1532
I2
S'i mean, it was good, but i have heard people ranting and raving about this place for a long time so perhaps the expectations were a lot higher than they should have been.'
p1533
tp1534
a(g1532
I3
S'i got the scotch beef and it was delicious for the first few bites, and then i realized it tasted like the barbacoa from chipotle.'
p1535
tp1536
a(g1532
I4
S'service was good, but not anything outstanding.'
p1537
tp1538
a(S'8pGFz2MZj0Es-KLTWB9s4Q'
p1539
I4
S'her meal and the appetizer were good, but my clams were gritty.'
p1540
tp1541
a(g1539
I5
S'the downfall was the service.'
p1542
tp1543
a(S'8sqSjQZ8F5H5RqNo1Nj1vg'
p1544
I0
S'for as busy as this location is for lunch, it is always clean, the staff is friendly, and the sandwiches are consistently good.'
p1545
tp1546
a(g1544
I1
S'there are a lot of options in this area for lunch and these guys nail it every time.'
p1547
tp1548
a(S'8uzaxTfoPOYh2bk_InZd7g'
p1549
I0
S'very authentic chinese food.'
p1550
tp1551
a(g1549
I3
S'food quality is above average.'
p1552
tp1553
a(g1549
I4
S"some of the dishes you won't find on the menus here in the states, but they are pretty common in china, taiwan and hong kong."
p1554
tp1555
a(g1549
I5
S'service was excellent.'
p1556
tp1557
a(g1549
I7
S'the food was brought out as it was made instead of all together.'
p1558
tp1559
a(g1549
I10
S"it's a little overpriced considering the location and d\\u00e9cor of the restaurant."
p1560
tp1561
a(S'8wXl2nyx52gaISOI_zpUWA'
p1562
I2
S"the decor had a nice irish feel and they had a band going at it upstairs(another example, they pronounce smithwicks properly, if you don't understand, just ask an irishman)\n\nthey charged a $5 cover, ladies were free."
p1563
tp1564
a(g1562
I3
S'the place was pretty hoppin, lots of drunk girls having a blast.'
p1565
tp1566
a(g1562
I5
S'a nice selection at a decent price.'
p1567
tp1568
a(S'8xS9xugGApxWJYnNwaDMXw'
p1569
I1
S'it was very casual and laid back, with the big wooden chairs and comfortable atmosphere.'
p1570
tp1571
a(g1569
I2
S'the food was about the same as the bar back home too.'
p1572
tp1573
a(g1569
I3
S'good but not spectacular.'
p1574
tp1575
a(g1569
I4
S'it tasted very fresh and well cooked, but pub food is rarely worth getting too excited about.'
p1576
tp1577
a(g1569
I5
S'the waitress was very attentive and took good care of us.'
p1578
tp1579
a(S'9-iuO0MsNR_tkbxNQlfzSg'
p1580
I1
S"it's pretty cheap for snow crab legs, but you get what you pay for - about an hour of hard work for a few bites of crab."
p1581
tp1582
a(g1580
I2
S'all other food was not terrible, but not great either.'
p1583
tp1584
a(g1580
I4
S'there you get king crab legs, already split for you, and the buffet is so much nicer, cleaner, and fresher feeling.'
p1585
tp1586
a(S'9BE9tZid_VYSX-SZ24ud2g'
p1587
I1
S'kale chips, scallop seviche'
p1588
tp1589
a(S'9FY1fducJGYyrReudszc8g'
p1590
I0
S'funny how bad service can tip an already poor experience to the black list.'
p1591
tp1592
a(S'9Ht3LBL6bGdX2neZAvoy4Q'
p1593
I3
S'other than that, the food was great, the lobster bisque was amazing, we both got the voodoo menage a trios (fillet, lobster tail & shrimp) which was also delicious.'
p1594
tp1595
a(g1593
I6
S'views were awesome, music was good and the crowd was right around our age which was nice since we are not 20 or 30 somethings!'
p1596
tp1597
a(S'9PCx7yd9FzsOLIHVlul6jA'
p1598
I0
S'excellent sichuan and cantonese dishes, friendly efficient service, and great prices.'
p1599
tp1600
a(g1598
I1
S"you can't go wrong at miu's cuisine, which opened up recently."
p1601
tp1602
a(g1598
I2
S'we got a few different dishes, and left very full and satisfied, with lots of leftovers for the next day!'
p1603
tp1604
a(g1598
I3
S'we got the ma po tofu, seafood with bean curd, yu xiang eggplant, sizzling rice soup, water-boiled fish, and a special order (beef with bitter melon).'
p1605
tp1606
a(g1598
I4
S'each was a large portion of food, with a distinct flavor, and well seasoned.'
p1607
tp1608
a(g1598
I5
S"the ma po tofu and beef with bitter melon were some of the best that i've had."
p1609
tp1610
a(g1598
I6
S'our total for all that food with 2 sodas and hot tea (including tax) was about $55, not bad!'
p1611
tp1612
a(S'9PCx7yd9FzsOLIHVlul6jA'
p1613
I7
S'rice and drinks were refilled as necessary, and service was friendly and prompt.'
p1614
tp1615
a(g1613
I8
S'they speak english, mandarin and cantonese here.'
p1616
tp1617
a(g1613
I10
S'one thing to note is that they do not have a soda fountain, so sodas ($1.75, pepsi products) are sold by the can.'
p1618
tp1619
a(S'9PjLrVJGDWmTr_dvRqdUmQ'
p1620
I2
S"it's perfect every time & on top of the great food, the service is excellent."
p1621
tp1622
a(g1620
I4
S'this is worth the drive if you live in phoenix & are looking around on yelp for a good thai place.'
p1623
tp1624
a(g1620
I5
S'check it out, you will not be disappointed!'
p1625
tp1626
a(S'9PuVzgOlfCyRq9FeOVR3Jg'
p1627
I0
S'cristian is the best, top notch for sure!!'
p1628
tp1629
a(S'9Pyn7uiSB-7fWtziZL2Zbw'
p1630
I2
S'only tried the pulled pork, which was good, but others said the chicken sandwich disappointed.'
p1631
tp1632
a(g1630
I3
S'lobster and potato cakes could have been better - too salty imo.'
p1633
tp1634
a(g1630
I4
S'spinach dip the only saving grace.'
p1635
tp1636
a(g1630
I5
S'oh, and their lemon bar dessert.'
p1637
tp1638
a(S'9QFZoPrQmJIVJ4belxhfwg'
p1639
I1
S'the lighting and whiteness of this restaurant make it very attractive, as does the sweeping bar and signature pooch art adorning the back wall.'
p1640
tp1641
a(g1639
I3
S"the food focus here is italian, and again, similarly to the other two restaurants, everything is quite shockingly reasonable at times, considering the tastiness and quality of the food you're devouring."
p1642
tp1643
a(g1639
I4
S'rigatoni al amitriciana always appeals to my half italian taste buds, as does the amazing seafood linguine.'
p1644
tp1645
a(g1639
I5
S'there are also pizza, soup and salad options to be had, all reliably very decent, so hesitate not in entering any of the dogs restaurant portals.'
p1646
tp1647
a(S'9RaRzZt4aomgnrD1XxZ60g'
p1648
I0
S'great service, good food, nice views - especially from the patio/deck, strong drinks.'
p1649
tp1650
a(g1648
I2
S'the lighting is romantic, the service was very good, the food was certainly good.'
p1651
tp1652
a(g1648
I3
S'not an extensive menu and maybe a little overpriced, but all in all i would go again.'
p1653
tp1654
a(S'9RaRzZt4aomgnrD1XxZ60g'
p1655
I4
S"if you show up early, do the zip line with the local discount, it's a fun 2 minutes."
p1656
tp1657
a(S'9_X_WlQG-vAjz_L250nN9A'
p1658
I1
S'the parking sucks to put it mildly and no handicap parking.'
p1659
tp1660
a(g1658
I2
S'pgh new retarded parking kiosk are the worst.'
p1661
tp1662
a(S'9bMVEoxcZul2ksJSFocPXQ'
p1663
I1
S'the lights were so dim that we had to use the our phones to read the menu.'
p1664
tp1665
a(g1663
I2
S'food portions were large.'
p1666
tp1667
a(S'9c-dc0NwXlGNt5PoYA8lcw'
p1668
I9
S'put it this way: there were, not one, but two sauces that my mom and i agreed we would like to bathe in.'
p1669
tp1670
a(g1668
I10
S'the parmesan broth on the home-made ribbon pasta dish was indescribably good, and the rosemary caramel on the (outstanding) cheesecake was truly delicious.'
p1671
tp1672
a(g1668
I11
S'as other reviewers have mentioned, the fried capers on the tartare are extra-special good.'
p1673
tp1674
a(S'9dFRYIx_sXRjXlZdDanLvg'
p1675
I0
S"great service here at nino's."
p1676
tp1677
a(S'9fbO0-I5w4ku-76XWrVDXg'
p1678
I0
S'excellent service, even better food.'
p1679
tp1680
a(g1678
I1
S'the seafood risotto is to die for, and my husband loved his pasta and sausage dish.'
p1681
tp1682
a(g1678
I2
S"it's a very expensive place to eat, but hey let's face it, you get what you pay for and here, you're paying for perfection."
p1683
tp1684
a(S'9k-goJAz5pgOOTLsjmE_Qw'
p1685
I0
S'worst service!!..'
p1686
tp1687
a(S'9lE6QzNJI0h1tSoXvFpozA'
p1688
I0
S'went here for a birthday party.'
p1689
tp1690
a(g1688
I1
S'awesome atmosphere, good food, good service.'
p1691
tp1692
a(g1688
I2
S'my evaluation:\n\nfacility: good- really cool place, apparently the bar and most of the accoutrements were shipped in from ireland.'
p1693
tp1694
a(g1688
I3
S'relaxing atmosphere, great place to kick back and enjoy a meal.'
p1695
tp1696
a(g1688
I5
S'food: excellent - the food here is great.'
p1697
tp1698
a(g1688
I6
S"the menu selection is not too vast, but it's decent."
p1699
tp1700
a(g1688
I7
S'i had the lamb roast pie which was phenomenal.'
p1701
tp1702
a(g1688
I8
S'it had a goat cheese and potato bake on top, and i was pretty happy.'
p1703
tp1704
a(g1688
I9
S'my wife, who is picky, got the hot and smoky burger, which was great as well.'
p1705
tp1706
a(g1688
I10
S'the fries were ridiculously crispy, and just had that beautiful crunch to them.'
p1707
tp1708
a(g1688
I11
S"we had creme br\\u00fbl\\u00e9e for dessert, which i wasn't crazy about."
p1709
tp1710
a(g1688
I13
S"service: good - the waitress was attentive and helpful, but didn't get in the way."
p1711
tp1712
a(g1688
I14
S'food came out in reasonable amount of time, and everything came out as ordered.'
p1713
tp1714
a(g1688
I15
S'overall we had a good time, good food, and a fun night.'
p1715
tp1716
a(S'9pNO0g9VxhoI0s4GitFLCA'
p1717
I0
S"tried this again, pizza wasn't as sloppy, still tasted good!"
p1718
tp1719
a(g1717
I1
S'also, the veggie calzone was amazing and cheap!'
p1720
tp1721
a(S'9yUayuA-oC5hscjFM8MtRw'
p1722
I8
S'portion was ok actually, truth be told a lot better portion wise then some other restaurants.'
p1723
tp1724
a(g1722
I9
S'mushroom stir fry is two or three different kinds of mushrooms sliced with some bell peppers and dried chilli peppers, the green beans were fresh cut in half stir fried with green onion and dried chilli peppers.'
p1725
tp1726
a(S'9yUayuA-oC5hscjFM8MtRw'
p1727
I11
S'ok i quite liked the mushroom stir fry they only negative would be too oily, and i think they could have added some other veggies just to make it more exciting and healthy but over all it was tastey and it was not over cooked.'
p1728
tp1729
a(g1727
I12
S'the green beans with garlic sauce was over cooked.'
p1730
tp1731
a(g1727
I14
S'other than that the taste was fine, especially liked the added chilli peppers.'
p1732
tp1733
a(g1727
I15
S'my friends shrimp with snow peas.'
p1734
tp1735
a(g1727
I16
S'he said it was a little too oily and too salty, other than that he said the flavor was fine.'
p1736
tp1737
a(g1727
I20
S'the atmosphere is relaxed and comfortable.'
p1738
tp1739
a(g1727
I21
S'the waitress is very friendly and attentive.'
p1740
tp1741
a(g1727
I22
S'the decor is of your typical chinese restaurant  d\\u00e9cor.'
p1742
tp1743
a(g1727
I23
S'no booths open tables that have comfortable seating.'
p1744
tp1745
a(g1727
I28
S"don't feel any discrimination here."
p1746
tp1747
a(g1727
I29
S"i totally recommend miu's cuisine."
p1748
tp1749
a(g1727
I30
S'perhaps they will serve brown rice in the future.'
p1750
tp1751
a(S'A41quikjAeVkpW24ZFQrUQ'
p1752
I14
S"again, the pizza is always good and good quality...i guess i just don't understand who hires these people."
p1753
tp1754
a(S'A9KVdHYkYYXMbI26_cwZ6w'
p1755
I1
S'authentic chinese food!!!!'
p1756
tp1757
a(g1755
I2
S'do not come here if you\'re looking for hokey and badly flavored "beef and broccoli"  bs.'
p1758
tp1759
a(g1755
I3
S'go to crazy buffet for that crap.'
p1760
tp1761
a(g1755
I5
S"you go to miu's if you want a religious experience in your mouth."
p1762
tp1763
a(g1755
I7
S'this young entrepreneur (who my husband and i had the blessing of being able to speak with as we dined all alone before the dinner rush) is a force of nature who knows good food and great service.'
p1764
tp1765
a(g1755
I8
S'i highly recommend the war wanton soup... and everything else on the menu.'
p1766
tp1767
a(S'ACJQQHZ-JAuhsoV3lbLxCg'
p1768
I1
S'the sandwich/ salad makers were polite and fast, and the price was reasonable for downtown.'
p1769
tp1770
a(g1768
I2
S'the salad looks like it could be good, but there is no way for me to know because they were out of utensils.'
p1771
tp1772
a(g1768
I4
S"and the worst part is that you don't know it until you already through the line and have paid."
p1773
tp1774
a(g1768
I5
S'they should let people know before they pay.'
p1775
tp1776
a(S'ADqwwjBUilyXX4rEazGgjg'
p1777
I4
S'it has the ambience (or lack thereof) that generally means delicious home style food.'
p1778
tp1779
a(S'ADqwwjBUilyXX4rEazGgjg'
p1780
I5
S"in this area miu's does not disappoint; formica tables and cafeteria chairs lead way to a tempting tome of a menu filled with many delights."
p1781
tp1782
a(g1780
I6
S"we fell in love with the salt & pepper shrimp, spicy wings (reminiscent of simon's @ palo alto's hunan garden) and the spicy green beans."
p1783
tp1784
a(S'AFVni8_I2CEAluAb-wSwMA'
p1785
I5
S'they were both very good, but not outstanding.'
p1786
tp1787
a(g1785
I7
S"it's probably blasphemy to say that these reminded me of steak and shake fries, but they did, only 10x better."
p1788
tp1789
a(g1785
I8
S'somehow they are able to keep these thin fries piping hot for more than 2 minutes.'
p1790
tp1791
a(g1785
I9
S'we also shared the soup of the day, tomato bisque, and the bacon candy salad, both of which were delightful.'
p1792
tp1793
a(g1785
I11
S'we thought both were good, but the scotch beef was the winner.'
p1794
tp1795
a(g1785
I13
S'i like bread pudding and this was good, but not great.'
p1796
tp1797
a(g1785
I16
S'the service was well-timed and we never felt rushed.'
p1798
tp1799
a(g1785
I17
S'the waitress did a good job of checking up, but not being overly attentive.'
p1800
tp1801
a(g1785
I18
S"there are quite a few places to spend a nice evening in phoenix and this is a good choice, but i wouldn't be clamoring to come back, either."
p1802
tp1803
a(g1785
I19
S"i do like that tarbell's is a nice change of pace from most of the upscale restaurants in town that specialize in steak."
p1804
tp1805
a(S'AIEAij3n8s_NyZpN6lRswA'
p1806
I1
S'the food is wonderful, the service is top drawer, and the atmosphere hits the exact right tone of hip.'
p1807
tp1808
a(S'AYVOHxUDSqG_rta6IZyjMg'
p1809
I0
S'really big & fresh shrimp !'
p1810
tp1811
a(S'Aauep7_I5QfmP3Tf9WUcfA'
p1812
I4
S'and the service, very very impressive!'
p1813
tp1814
a(g1812
I5
S'mngmnt even came by to see how everything was, well, just awsome!!!!'
p1815
tp1816
a(g1812
I6
S'i will definately frequent the pink pony....koodos to managemnt, bret c, the chef stephen e, and my server anthony.... :-) :-) :-)'
p1817
tp1818
a(S'AgKf4xwR5CeMa5SzTSqmng'
p1819
I0
S'food--- great    booze----great   service-- great  if you do not like this place , see a therapist.'
p1820
tp1821
a(S'AkbJwBJj1guobBp4W_jfWA'
p1822
I2
S'but thankfully, the fish here was haddock!'
p1823
tp1824
a(g1822
I3
S'which is a mild and yummy fish, much like halibut.'
p1825
tp1826
a(g1822
I4
S'and haddock is what the best fish and chips are made from, especially in england.'
p1827
tp1828
a(g1822
I5
S'well, suffice it to say, these were the best fish and chips i had here in charlotte!'
p1829
tp1830
a(g1822
I6
S'the batter was light, and not overly done which most tend to do.'
p1831
tp1832
a(g1822
I7
S'and it was very tasty too.'
p1833
tp1834
a(g1822
I8
S'combine that with the quality of the fish, and the yummy tartar sauce, and it was a great meal!'
p1835
tp1836
a(g1822
I9
S'my wife had the guiness beef stew, which also was yummy.'
p1837
tp1838
a(g1822
I10
S"a little small for me (i'm a big guy), but perfect for her petite frame."
p1839
tp1840
a(g1822
I11
S'they had a great premium/microbrew list.'
p1841
tp1842
a(S'AkbJwBJj1guobBp4W_jfWA'
p1843
I20
S'one of the only places here in charlotte that actually know how to make crispy bacon!'
p1844
tp1845
a(S'ApL4LWLY0dC79U0zOK54EQ'
p1846
I1
S'the dan dan noodles have a very well rounded flavor, they are more than just hot with spice.'
p1847
tp1848
a(g1846
I2
S'the salt & pepper pork chops are nearly perfect...fried to airy perfection lightly sweet then covered with salt and pepper (fried peppers) which make for a great combination..and yes, you will catch me chewing on the bones!'
p1849
tp1850
a(g1846
I3
S"the kung po chicken is probably the best version of this dish i've ever had."
p1851
tp1852
a(g1846
I4
S"simply more complex and fresher than any one i've ever had."
p1853
tp1854
a(g1846
I5
S"once you get past the location, building, and dining room and you'll have some of the best chinese food in the valley....or order take-out."
p1855
tp1856
a(S'AxDBxV87AhAwNouYdbOWHA'
p1857
I3
S"the service was solid, view was beautiful, and while the food wasn't memorable, it was really good."
p1858
tp1859
a(g1857
I4
S'pros: as most say, the view of the lv valley.'
p1860
tp1861
a(g1857
I5
S'they have a nice deck where you can go out and lounge and take in the view.'
p1862
tp1863
a(g1857
I6
S'the service was nice and efficient.'
p1864
tp1865
a(g1857
I7
S'everything tasted good, but nothing rocked my socks so much i would have to come back for it.'
p1866
tp1867
a(g1857
I10
S'truffle mac and cheese was also tasty.'
p1868
tp1869
a(g1857
I11
S"there is a 20% discount if you show your penn & teller tickets.. which you'll need because...\n\ncons: it's much too pricey for the quality!"
p1870
tp1871
a(g1857
I12
S'this is fine dining prices but outback steakhouse quality dishes.'
p1872
tp1873
a(g1857
I13
S"yes, it's plated nicely and yes the restaurant is pretty, but you're not going to get a unique flavor explosion here."
p1874
tp1875
a(g1857
I15
S"the witch doctor is a giant and cool looking drink but it's $31!"
p1876
tp1877
a(g1857
I16
S'buyer beware.'
p1878
tp1879
a(g1857
I17
S'the price is not on the menu... that should have been our first clue.'
p1880
tp1881
a(g1857
I21
S"if you're a fine steakhouse, please use high quality produce, cheese, and balsamic."
p1882
tp1883
a(S'AxDBxV87AhAwNouYdbOWHA'
p1884
I22
S'the bread had potential but was rock hard.'
p1885
tp1886
a(g1884
I23
S'overall, a nice meal, a nice view, and other than my empty wallet, nothing substantial to complain about not look forward to for next time.'
p1887
tp1888
a(S'AxJ0MIegwWq6luou4knmyA'
p1889
I3
S'they had several specials as well as an extensive menus and the waiter said they could make things like fettucine alfredo.'
p1890
tp1891
a(g1889
I5
S'the meals came with salad or soup although you had to pay extra to upgrade to caesar salad.'
p1892
tp1893
a(g1889
I6
S'the salads were great and quite big.'
p1894
tp1895
a(g1889
I7
S'the meals were also delicious although the salad plus the entree was too much food.'
p1896
tp1897
a(g1889
I8
S'our total bill was $60 which seemed like a fair price.'
p1898
tp1899
a(g1889
I9
S'if your are looking for some place to eat off the strip and the pasta shop is still closed try sergios.'
p1900
tp1901
a(S'B1dBO6SHzUiKjETt8Lm--g'
p1902
I0
S'cheap prices.'
p1903
tp1904
a(g1902
I1
S'fast service.'
p1905
tp1906
a(S'B1ljVixT1lqOOfXAFeCFjQ'
p1907
I0
S'a lot of the chinese students here said this was a good place and more authentic than the other chinese places in town.'
p1908
tp1909
a(g1907
I1
S'i was recommended to try the stir-fried fish with chili and and the steamed fish with chili sauce.'
p1910
tp1911
a(g1907
I2
S'both were excellent and both dishes were big enough for two people to share.'
p1912
tp1913
a(g1907
I3
S'we also had a good dish that was thinly sliced potatoes and peppers.'
p1914
tp1915
a(g1907
I5
S'very tasty!'
p1916
tp1917
a(g1907
I6
S"they have some american chinese dishes too, but i didn't see the point in getting them, since i like trying new things and their menu is huge!"
p1918
tp1919
a(g1907
I7
S'they do not have a full bar like it says under the description, though.'
p1920
tp1921
a(S'B51tVmQwzxXSJ7rmeORCCg'
p1922
I0
S'love this place.'
p1923
tp1924
a(g1922
I1
S"it's small, family-run and inexpensive."
p1925
tp1926
a(g1922
I2
S'the vietnamese sandwiches are simple, delicious and fresh.'
p1927
tp1928
a(g1922
I3
S"can't ask for much more than that."
p1929
tp1930
a(S'BHowk_0tJTGlTvV_WlMb3g'
p1931
I0
S'honestly many other chinese restaurants have much better food than this.'
p1932
tp1933
a(g1931
I1
S'same dish better taste.'
p1934
tp1935
a(g1931
I2
S'and what makes it the worst chinese restaurant is their super bad service.'
p1936
tp1937
a(S'BHowk_0tJTGlTvV_WlMb3g'
p1938
I3
S'always make customers wait extra longer time, eat there or to go or delivery!'
p1939
tp1940
a(g1938
I4
S'a delivery takes 90+ minutes, and even asks customers to go find their car to get food, and they just sit there in the car without even getting out.'
p1941
tp1942
a(S'BSPI9ojYnOKnU9XZU3tkPw'
p1943
I0
S'amazing decor with a modern and intimate feel.'
p1944
tp1945
a(g1943
I1
S"we were in town and decided to try a nice place for wine and dessert, had a glass of red zinfandel (fruitful and easy to drink) and my boyfriend had the vanilla porter (thick body and true to it's name) and a glass of malbec ( tasty and extremely smooth, definitely suggested)."
p1946
tp1947
a(g1943
I3
S'the rosemary caramel sauce was thick and tasty but not overwhelmingly sweet at all, the cheesecake itself was thick and creamy, and the crust was perfectly baked, we loved it.'
p1948
tp1949
a(g1943
I4
S'since the dessert was so good, we figured why not try out their steak.'
p1950
tp1951
a(g1943
I5
S'we shared a steak medium rare which came out split for us without even having to request it to be split.'
p1952
tp1953
a(g1943
I7
S'very tender and perfectly cooked.'
p1954
tp1955
a(g1943
I8
S'side of mashed potatoes were well mashed and not runny at all, gravy is by request and has a charred, oak taste to it, delicious.'
p1956
tp1957
a(g1943
I9
S'overall, we loved it!'
p1958
tp1959
a(S'BUhFbIoZx8cnUOGXBi2jLQ'
p1960
I0
S'this place never disappoints.'
p1961
tp1962
a(g1960
I3
S'i had never seen the steak pie on their menu but it was amazing!'
p1963
tp1964
a(g1960
I4
S'services was great as always and we had a wonderful meal.'
p1965
tp1966
a(g1960
I5
S'ri ra is one of my favorite restaurants in charlotte and if you like pub food this place is the absolute best!'
p1967
tp1968
a(S'BpXk8RdYJeiD8NNtq9aYTg'
p1969
I2
S'not only was the food incredible but the service was outstanding as well.'
p1970
tp1971
a(S'BpXk8RdYJeiD8NNtq9aYTg'
p1972
I6
S'much to our surprise she showed up with a complimentary plate of mixed veggies to try since it was our first time there .... and no surprise at this point but the vegetables were incredible as well.'
p1973
tp1974
a(g1972
I7
S'now usually i skip dessert (spare myself the added calories) but after learning that the owner studied culinary in paris , i was inclined to try the "wife salted popcorn creme br\\u00fbl\\u00e9e " .'
p1975
tp1976
a(g1972
I8
S'my husband and i just got back from our first trip to paris and i have been searching for anything that even comes close to authentic french creme br\\u00fbl\\u00e9e ..... and this was it !!!!!'
p1977
tp1978
a(g1972
I10
S'worth every calorie lol !'
p1979
tp1980
a(g1972
I14
S'if you are on the fence about trying this place out ... please do!'
p1981
tp1982
a(g1972
I15
S"you won't be disappointed in the least !!!"
p1983
tp1984
a(S'BuRawgaNC87Zqj3iaeucoA'
p1985
I0
S'the food here is quite good.'
p1986
tp1987
a(g1985
I1
S"the wait staff don't communicate well."
p1988
tp1989
a(g1985
I2
S'the ambiance needs work; feels like a warehouse.'
p1990
tp1991
a(g1985
I3
S'the hot seasoning is very hot, but the cantonese is very mild.'
p1992
tp1993
a(g1985
I4
S'try the braised eggplant and cucumbers in garlic.'
p1994
tp1995
a(S'ByFoyAu5FAtE9kcyXT1L5g'
p1996
I0
S"i've heard that pizza sola is a chain, but i've never been to another one."
p1997
tp1998
a(g1996
I1
S'the stigma of chains aside, what a great neighborhood pizza shop.'
p1999
tp2000
a(g1996
I2
S'the decor is very nice, with lots of stainless steel tables and a nice seating area to eat-in.'
p2001
tp2002
a(g1996
I3
S'they have all the basic types of pizza, as well as some of the more unique (hawaiin pizza is great), but overall this is just a good ny-style thinner-crust pizza shop.'
p2003
tp2004
a(S'C7MpKQNq95KMaFeFMXHXjA'
p2005
I0
S'complete scam!!'
p2006
tp2007
a(S'C8knIxOY3BFOIoRnKuHW6w'
p2008
I0
S'man these are some good subs.'
p2009
tp2010
a(g2008
I1
S'im a big fan of getting your meat sliced right onto your sandwich.'
p2011
tp2012
a(g2008
I2
S'they load it up right and have all the good fixens.'
p2013
tp2014
a(g2008
I3
S'i always get the club with oil and vinegar which comes with roast beef , turkey, and bacon lettuce tom.'
p2015
tp2016
a(g2008
I4
S'and onions.'
p2017
tp2018
a(g2008
I5
S'one of the better sub chains.'
p2019
tp2020
a(S'CJKwusJmRv7Iit6D0eMdWQ'
p2021
I4
S"there isn't a tv for every 10 degree turn of the head, so that's a plus."
p2022
tp2023
a(g2021
I5
S'food is more interesting on the weekends, as they offer irish brunch dishes - my irish benedict (1st try having gotten consumed by a table pal after arriving with rashers, a thick, ham-like meat) was good, with the potato cakes stealing the show.'
p2024
tp2025
a(g2021
I6
S"i'd come back on a non-world cup weekend for this dish, absolutely."
p2026
tp2027
a(g2021
I7
S'bloody mary was meh, but it had a huge pickle spear as a garnish.'
p2028
tp2029
a(g2021
I8
S'hard to be angry at a drink that comes with a pickle.'
p2030
tp2031
a(g2021
I9
S"for me, ri ra's is a better place to hit off-hours with friends, all of us squished into a booth, talking about ulysses."
p2032
tp2033
a(g2021
I10
S"but its' sports bar alter-ego is definitively what pays the bills."
p2034
tp2035
a(S'CJaZ7JN-wKrQeWoTL7sR0A'
p2036
I0
S'this jack in the box is a pleasant reminder of how jack in the box used to be, years ago, when fast food was pitched primarily as a wholesome family dinner, rather than as something to quell the "munchies."'
p2037
tp2038
a(g2036
I1
S'the restaurant is always clean and non-rowdy.'
p2039
tp2040
a(g2036
I2
S'the staff is always nice and patient.'
p2041
tp2042
a(S'CK0Iio7wV6atBOLvqN2guA'
p2043
I2
S'if you live in anthem or desert hills you have to give dara thai a try.'
p2044
tp2045
a(g2043
I3
S'the food is consistantly great as well as the friendly service.'
p2046
tp2047
a(g2043
I4
S'the prices are very reasonable as well.'
p2048
tp2049
a(g2043
I5
S'try the pad thai and the curry fried rice i recomend it with pork or shrimp.'
p2050
tp2051
a(S'COvx8kjtOt867ppc8KHv6Q'
p2052
I0
S'tried it out for lunch.'
p2053
tp2054
a(g2052
I1
S'walked in during the lunch hour and only 3 other tables were filled.'
p2055
tp2056
a(g2052
I3
S'everything on the menu looks great.'
p2057
tp2058
a(g2052
I7
S'the sandwich had a lot of crab that was in light sauce, fortnately not mayo.'
p2059
tp2060
a(g2052
I8
S'served on top of a romaine lettuce leaf and roll.'
p2061
tp2062
a(g2052
I9
S'which was not toasted and a bit stale.'
p2063
tp2064
a(g2052
I11
S'the sweet potato fries were great!'
p2065
tp2066
a.