(lp0
(S'-YkjJlyx1-sG4C6x7Xy3Iw'
p1
I6
S'we had\\uff1a\nappetizers:\nchengdu clear noodles\\uff08\\u6210\\u90fd\\u51c9\\u7c89\\uff09\nscallion pancakes\\u3000\\uff08\\u8471\\u6cb9\\u997c\\uff09\n\nmain courses:\nbraised duck with scallion\\uff08\\u4eac\\u8471\\u6252\\u9e2d\\uff09\nfire pot with pork intestine and hot sauce\\uff08\\u5e72\\u9505\\u80a5\\u80a0\\uff09\nsteam fish with pickled peppers in hunan style (\\u8dfa\\u6912\\u5168\\u9c7c\\uff09\ncelery fried with dry tofu and peppers (\\u5c0f\\u6912\\u9999\\u5e72\\u7092\\u82b9\\u83dc\\uff09\n\nthe braised duck with scallion\\uff08\\u4eac\\u8471\\u6252\\u9e2d\\uff09 and the steam fish with pickled peppers in hunan style (\\u8dfa\\u6912\\u5168\\u9c7c\\uff09 were really the highlights.'
p2
tp3
a(S'2c1OVnZGrPWCYcDtGnNoQQ'
p4
I0
S'ive been all over the world \nand eaten in many fine and high dollar establishements \nand this the best steak and nice meaty scallops \ni have ever eaten \nworld class service \nand the best dang drinks ever \nin for a treat try the mules \ndont miss out on the baja style shrimp ceviche\ncant beat sitting and chatting with the owner and managnent \nsave room for the key lime pie'
p5
tp6
a(S'5UsiAQvgZ6lpfEBfcrrvAw'
p7
I5
S'(disclaimer: no warranty on over- stretched metaphors and aphorisms)  unfortunately "hot" doesn\'t like me anymore, but this was so good i elected to repair to the car for a shot of non-denominational pink bismuth solution in order that i should be able to consume more without immediate threat to self or community at large.'
p8
tp9
a(S'-JmrSEYFkFZFBR3FmPWDMw'
p10
I0
S"it does not inspire confidence when your bar tendar has to look up on his phone the most basic of drinks, not complicated high ball drinks i'm talking white russians and manhattans, service was slow and food was not stand out, i could say these things could be attributed to growing pains but we wont be back to find out."
p11
tp12
a(g7
I8
S'delightful in itself, a light, not "heavy", lightly sweet dessert, a wonderful compliment to the meal as well as a utilitarian palate-cleansing restorative to the spice-numbed tongue, though from a marketing perspective i might recommend they come up with a more appetizing pseudonym for "glutinous rice balls".'
p13
tp14
a(S'6YneHLieBPpJN-ITCAG3ww'
p15
I14
S'i was more than disgusted with the entire system that have not the slightest notion of customer service in mind, they actually ask me to have my credit card ready when i was on hold for the operator.......this has turned into a low class , customer is just a walking credit card to them kind of a place.'
p16
tp17
a(S'5nREKhkIXZPo6JgkmbBtAQ'
p18
I7
S"so all in all if you go and order prime rib and dont mind paying $5 extra for a salad then you should have a very good time.. i would not recommend the filet, go down the road and eat at feugos inside the fiesta, much better and you get a salad and the vege's are fresh and tasty."
p19
tp20
a(S'BSPI9ojYnOKnU9XZU3tkPw'
p21
I1
S"we were in town and decided to try a nice place for wine and dessert, had a glass of red zinfandel (fruitful and easy to drink) and my boyfriend had the vanilla porter (thick body and true to it's name) and a glass of malbec ( tasty and extremely smooth, definitely suggested)."
p22
tp23
a(S'183hgO5dwRSVb6n7IqabUw'
p24
I12
S'oh, and they also have these "grilled footlong hot dogs," but beware - they aren\'t your ordinary hot dogs, they\'re more like these enormous sausages & they\'re rather oily/greasy...not for the faint of heart (and the reason they\'re like five/six bucks or something like that).'
p25
tp26
a(S'7WNZNVPj-g5Z0_ABRgd0yg'
p27
I5
S'the last minute addition of an extra person to our table seemed to cause quite an unnecessary stir and we were made feel extremely fortunate to be allowed order from the regular menu even though there was a restriction placed on the number of pizzas which could be ordered.'
p28
tp29
a(S'14rg-QqMErTn1Xq-cPymKw'
p30
I1
S"(and maybe even to treat myself at the bar :) ...)\n\nwalked in on a thursday night around 8 pm and were seated at a nice 4-top table right in the center of the dining area, i'm difficult to please, and just by where they placed us, good vibes had already been given off."
p31
tp32
a(S'3kbFoqsQGekQOBkpbrvw1w'
p33
I4
S'on my first visit i ordered roast pigeon with puy lentils and my friend ordered fish, this left us with a red/white wine dilemma, the waiter recommended a wonderful rose wine (casa do lago) that went well with both dishes and has since become a favourite of mine.'
p34
tp35
a(g15
I1
S"in one word ugly, brown painted wall with a few wire voodoo figures, same old beat up chairs with stains on the fabric and wood that is all chewed up, i don't know who hired the designer , must have gone to home depot and asked for redecorating idea."
p36
tp37
a(S'0t0kkFIPvJbp2HGjvLvwKg'
p38
I2
S"i'd just thought i'd give a little bit of background on why i never made my way to the az pink pony until recently... nothing against strip clubs, but i think in my head, any mention of pink pony just made me think of strippers and not food or drink."
p39
tp40
a(S'CJKwusJmRv7Iit6D0eMdWQ'
p41
I5
S'food is more interesting on the weekends, as they offer irish brunch dishes - my irish benedict (1st try having gotten consumed by a table pal after arriving with rashers, a thick, ham-like meat) was good, with the potato cakes stealing the show.'
p42
tp43
a(S'1EH_JXTXqWXm3jkg43iVOA'
p44
I2
S"growing up in europe (call me a sandwich snob) i have yet t go to a place that serves the same quality bread and baguettes that one finds in europe and would rank dilly's deli and sacks, sliver mine subs or even port of subs above jersey mike's."
p45
tp46
a(S'BpXk8RdYJeiD8NNtq9aYTg'
p47
I11
S'not to mention when looking at the dessert menu my husband was asking how the bread pudding compared to the br\\u00fbl\\u00e9e.... and low and behold they brought some complimentary bread pudding for us .... which was also mouth watering .'
p48
tp49
a(g38
I4
S"so, while i may not have visited in it's original condition, i can vouge for this latest version and can say that i'm a big fan... i met some girlfriends for drinks and dinner on a recent weeknight and we had a very positive experience."
p50
tp51
a(S'2Czl3yILhUw-jvJysKk6Ug'
p52
I4
S'not to be forgotten, a beautifully assorted dessert platter on the house as a birthday present and dinner topper boasting a rich array of decadent sweets including my favorite the mascarpone cheesecake with warm rosemary caramel sauce.'
p53
tp54
a(g15
I4
S'then the food, well that is the tiniest and worse $48 fillet i have ever seen and the asparagus side dish was so tough and fibrous that only the first inch can be eaten, the rest would make a nice hammock cause it is tough enough to.'
p55
tp56
a(g30
I9
S"the seafood risotto was good, but a little too overwhelmed with the taste of salmon; but the tar's scotch beef, and the house made ribbon pasta with chicken fennel sausage were phenomenal; you can taste quality in every bite... yum!"
p57
tp58
a(S'321SNCqAWNCWQ5_mXbgXOQ'
p59
I4
S"servers are not even bothered to ask once they take the orders \nour server took wrong order and then had to replace the food\nserver didn't even know how to place the food on the table(slams the plates all the time), chewing gums."
p60
tp61
a(g38
I0
S"living in az for close to eight years, i've driven by pink pony more times than i can count... but prior to living here in az, i lived in atlanta, and the pink pony that resides in atlanta is a little bit different than this one."
p62
tp63
a(S'-rQEwF8Aihan0GyGHJDF3g'
p64
I4
S'the staff are always friendly, and alongside their lunch meals, all under a fiver, they have homemade cakes procured from a variety of local bakers, freshly ground zapatista coffee, an assortment of teas and organic fizzy drinks.'
p65
tp66
a(S'2OuBglt6bmpHci2AlZF5Hw'
p67
I7
S'since thai food can be a bit on the spicy side i was very pleased to learn you could choose your level of "heat" from 1 to 5.  i like my asian food a bit spicy but my wife prefers mild:  dara thai lets you customize that level.'
p68
tp69
a(S'9yUayuA-oC5hscjFM8MtRw'
p70
I11
S'ok i quite liked the mushroom stir fry they only negative would be too oily, and i think they could have added some other veggies just to make it more exciting and healthy but over all it was tastey and it was not over cooked.'
p71
tp72
a(S'9QFZoPrQmJIVJ4belxhfwg'
p73
I0
S'i would say amore dogs, out of the three restaurants in the same dogs group, is probably the most iron a nice shirt or shove a bit of lipstick on feeling, as it just feels slightly more formal, with more of a chic edge to it.'
p74
tp75
a(S'ApL4LWLY0dC79U0zOK54EQ'
p76
I2
S'the salt & pepper pork chops are nearly perfect...fried to airy perfection lightly sweet then covered with salt and pepper (fried peppers) which make for a great combination..and yes, you will catch me chewing on the bones!'
p77
tp78
a(g38
I8
S"beth was up front with us about her favorite salad being the farmer's salad, and it was a good call, but worth noting that if you want to add salmon to it, it will cost you a hefty $14 on top of the $14 for the salad alone."
p79
tp80
a(g7
I2
S'despite having spent a year in mainland china quite some years ago, i did not find myself drawn to "large intestine", no matter how authentic, and our gang of four settled elsewhere on the menu to happy results all around.'
p81
tp82
a(S'8wXl2nyx52gaISOI_zpUWA'
p83
I2
S"the decor had a nice irish feel and they had a band going at it upstairs(another example, they pronounce smithwicks properly, if you don't understand, just ask an irishman)\n\nthey charged a $5 cover, ladies were free."
p84
tp85
a(S'8VYXDx4qKxZLVCfsHeT_9g'
p86
I9
S"i've heard the quality of the pizza at this place is inconsistent, and that some days it's better than others, so i'd be willing to try it again if i happen to be in the area, but i wouldn't go out of my way for it."
p87
tp88
a(g18
I3
S"everyone's prime rib was huge and tasty looking, lots of positive feedback on the prime rib, vege's were asparagus which had a sauce on them and were not crunchy and looked gray.. not fresh and green.. 1 star there."
p89
tp90
a(S'4wRuohy4eAelIP6lRZz6PA'
p91
I29
S'this place would probably be perfect for older rich people that have no real palate:  people that go to restaurants to improve their socioeconomic standing among their peers instead of discovering mind-blowing food.'
p92
tp93
a(g27
I7
S"over half an hour after our order was taken, one of my friends enquired if our food would be out soon as some of us had ordered starters and she was informed that they didn't know how much longer our food would be."
p94
tp95
a(g15
I12
S'well the hotel computer only wanted to know if i want a room and when i got the operator, she send me to restaurant reservation , they send me back to operator and round and round it took all of 35 minutes...35 !!!'
p96
tp97
a(g70
I9
S'mushroom stir fry is two or three different kinds of mushrooms sliced with some bell peppers and dried chilli peppers, the green beans were fresh cut in half stir fried with green onion and dried chilli peppers.'
p98
tp99
a(S'3zbsgICVzggfgj0BYu55Yw'
p100
I3
S"ridiculous for the price and ambiance of this restaurant i wo.uld suggest go to the lounge and enjoy the view but definitely plan dinner elsewhere as this one won't get a second chance from this las vegas local."
p101
tp102
a(S'8nLGzotQ5RduPqwUEI7uIw'
p103
I6
S'three of us shared entrees, actually, so i also tasted a wonderful "scotch beef with buttermilk mashed and organic broccolini" and "barbecue chicken pizza with house-pulled mozzarella and grilled green onions".'
p104
tp105
a(S'599GMq-g04xWuELQBAjsPQ'
p106
I1
S'i am really impressed by their business, last week we got two regular subs, when we got home we noticed that it seemed to be lacking in meat and the cheese was non-existent on one and paper thin on the other.'
p107
tp108
a(g91
I13
S"it was so unbelievably disrespectful and unwelcoming i'm pretty sure the only reason i actually sat down at the bar was because there was a seat open, and i was still trying to process what had just happened."
p109
tp110
a(g38
I3
S"it's funny though, as now that the az pink pony has been completely renovated and re-opened under a new owner, i'm just now learning about all of the history to this more than 60-year-old landmark restaurant!"
p111
tp112
a(S'2JFxOFk-K1CQsyph2Inlvg'
p113
I5
S'over at the hot tables were a good number more things to enjoy, including numerous hot veggies, excellent fried chicken, saurkraut and sausage, fish, spaghetti with meat sauce and lamb roast with demi sauce!'
p114
tp115
a(S'2-MkK2D7cNVbqCPTDMC5Nw'
p116
I6
S"you often get servers that are willing to tell you what is good and what is not on the menu while i don't think this place would have anything that was bad it was nice to know what the house specialties were"
p117
tp118
a(S'CJaZ7JN-wKrQeWoTL7sR0A'
p119
I0
S'this jack in the box is a pleasant reminder of how jack in the box used to be, years ago, when fast food was pitched primarily as a wholesome family dinner, rather than as something to quell the "munchies."'
p120
tp121
a(S'8uzaxTfoPOYh2bk_InZd7g'
p122
I11
S"if the restaurant was in downtown scottsdale or tempe with upscale d\\u00e9cor i would definitely say this place is four or five stars, but i wouldn't take a first date to this place unless she was a foodie."
p123
tp124
a(S'9Ht3LBL6bGdX2neZAvoy4Q'
p125
I2
S'we both had a chance to get up and walk around the restaurant and saw at least three open tables on the window with an amazing view of the strip, kind of disappointed about not getting one of those tables.'
p126
tp127
a(S'2PJgwbN5eygvdJ5GzD-SWw'
p128
I9
S'service was exceptional; food was excellent; there is a night club upstairs & it started to flow into our dinner experience, so a minor ding for that, but overall would recommend and will likely come back.'
p129
tp130
a(S'-aPQw2ICvSlslbFxS0XHSg'
p131
I22
S'maybe some of the other folks on here went on an off night or may be one of those people who does nothing but complain (i read some other reviews posted by some negative nancies..) we thought it was great!'
p132
tp133
a(S'3q68-kr8ivTPMGfPGKYm5w'
p134
I14
S'great menu selection and it was hard to choose, but for my entree i had a 8 oz filet with a side of creamed spinach, it was rare, just the way i ordered it and it melted in your mouth it was soooooo good.'
p135
tp136
a(g24
I3
S'when you first order a "regular" sub & see the bread they whip out you think, "wow, that\'s nothing special" (in comparison to other places)...but that\'s before they start piling on the meat and toppings!'
p137
tp138
a(g73
I3
S"the food focus here is italian, and again, similarly to the other two restaurants, everything is quite shockingly reasonable at times, considering the tastiness and quality of the food you're devouring."
p139
tp140
a(g15
I5
S'my so call lobster thermidor was a total joke, i guess they decide what that is, no cognac in the sauce, no re bake in the shell with bread crumbs on top, and two tiny claw meat and the rest is crab!!!!'
p141
tp142
a(g64
I3
S'they serve mezze plates that come with a variety of freshly prepared salads, dips and warm pita bread alongside a selection of carefully prepared wraps and paninis, all made from local, organic produce.'
p143
tp144
a(S'A41quikjAeVkpW24ZFQrUQ'
p145
I13
S"we ordered margherita pizza and came home to find a pizza with all sauce and three small pieces of mozzarella--keep in mind the pizza wasn't cheap, so you expect a decent pizza with rightful toppings."
p146
tp147
a(S'77c9wz87UeUzmAwJjYSeSA'
p148
I4
S'when the server brought out two large bowls, i was so confused that i asked if he had put in an order for each of us; the server kindly explained that it was just one order that he split for us (wow).'
p149
tp150
a(S'3BYZ_smmMtQSBjjxUzr5aQ'
p151
I3
S'the raucous ladies w. their cigs (you can still smoke in doors in az), the neil diamond-loving karaoke entertainer, and the sirloin special all proved almost as rewarding as a sighting of danny haren.'
p152
tp153
a(g47
I6
S'much to our surprise she showed up with a complimentary plate of mixed veggies to try since it was our first time there .... and no surprise at this point but the vegetables were incredible as well.'
p154
tp155
a(g86
I3
S'i ordered a slice of the spinach, tomato, and feta, my (usually) gluten-free friend had a slice of pepperoni, and my other friend had a slice of cheese, since that pie had just come out of the oven.'
p156
tp157
a(S'3mUmCPaWcxCjRM4-QmOoug'
p158
I9
S"still, when i go to pavilion cafe i see my future unfolding like this as i sip on a soy milk latte eating an amazing bowl of veggie minestrone soup with maybe the best bread i've had in a long time."
p159
tp160
a(g86
I5
S'while the slices were large and the flavors were okay (albeit nothing special), the crust was soft and floppy (i prefer a crispy crust for thin-crust pizza) and kind of soggy from the sauce on top.'
p161
tp162
a(g47
I7
S'now usually i skip dessert (spare myself the added calories) but after learning that the owner studied culinary in paris , i was inclined to try the "wife salted popcorn creme br\\u00fbl\\u00e9e " .'
p163
tp164
a(S'A9KVdHYkYYXMbI26_cwZ6w'
p165
I7
S'this young entrepreneur (who my husband and i had the blessing of being able to speak with as we dined all alone before the dinner rush) is a force of nature who knows good food and great service.'
p166
tp167
a(S'2SL9lv92ePaP-ylwUAPPng'
p168
I0
S'lenny\'s is turning into my "go-to" sub shop - just overall good stuff, the guys running the shop are funny and seem to be happy to be making sammiches - they might be mentally ill in that regard.'
p169
tp170
a(S'2LAMjZT0yB6lizf-ALspMw'
p171
I1
S'perhaps he should have spent an additional couple dollars to valet; and olive oil served w/ bread instead of butter isn\'t really as "fashionable" as it is traditional, esp at italian restaurants.'
p172
tp173
a(g148
I11
S'because i wanted to like it so much, i hope that i do go again in the future to explore the menu a bit more and perhaps better understand the hype -- the potential seems like it should be there.'
p174
tp175
a(g91
I30
S"i'm sure chef tarbell is an excellent chef, but i'm under the impression he has had to dumb down his food because the well-heeled, stodgy clientele wouldn't be able to appreciate the real thing."
p176
tp177
a(g91
I20
S"it had a sauce on it (which wasn't mentioned on the menu) that just looked and tasted like the most basic demi-glace sauce you could imagine -- at first i thought it was the steak bleeding off."
p178
tp179
a(g148
I10
S"overall i really enjoyed the atmosphere and the food was good; i wouldn't hesitate to go here for a business dinner or accept an invitation to go, but i won't be picking it in the near future."
p180
tp181
a(S'-BfOwq5-_opqlbSWPTdb6w'
p182
I18
S'the only frustrating part of the evening was trying to pay the check; they brought it to us quickly, but never returned to run the credit card, and at that point we really needed to get going.'
p183
tp184
a(g47
I8
S'my husband and i just got back from our first trip to paris and i have been searching for anything that even comes close to authentic french creme br\\u00fbl\\u00e9e ..... and this was it !!!!!'
p185
tp186
a(g27
I12
S'my friend, unaware that somebody else at the table had already requested that our water jugs be refilled, felt like she was back in school been scolded when she politely asked for more water.'
p187
tp188
a(S'7SorPHCj9zWuFXQFY_6_Vw'
p189
I10
S'what arrived was a very full bowl of broth that was very very rich with butter and for the first three spoonfuls was luxurious, but way too rich to be able to enjoy it in the quantity served.'
p190
tp191
a(g7
I3
S"every dish was excellent, absolutely exceptional in a totally positive way,  and i look forward to returning for more as soon as i've recovered from my foray to the szechuan side of the menu."
p192
tp193
a(g38
I17
S"needless to say, our evening was great from start to finish, so i say giddy up... if you're looking for somewhere new to check-out, you can't go wrong with the (new version of) the pink pony!"
p194
tp195
a(g182
I12
S'they arrived slowly over the course of about 15 minutes, so it was a good thing we were planning on sharing everything rather than waiting for all the food to come out before we could start.'
p196
tp197
a(S'7FASrs-VnLVNQ2mrn6oaww'
p198
I36
S"but again, it's just a slice of tiramisu in a bowl that's slightly too small for it (much in the same way that if you ate it everyday, your jeans would start to be just that tad too tight)."
p199
tp200
a(g38
I15
S'lucky for us though, the night we were there, we also were able to have some of a special grand re-opening sheet cake... \n\nthe redesign of the restaurant has a clean and classy feel to it.'
p201
tp202
a(g1
I9
S'our russian american friends have been exposed to some fine chinese cuisines both in chicago and china (mainland and hk) as well as fine cuisines everywhere so i will say gourmet tourists.'
p203
tp204
a(g86
I2
S"since pizza is one of those items she isn't usually able to eat, and it'd been years since she'd had a slice of (non-gluten-free) pizza, we decided to head over to pizza sola for a slice."
p205
tp206
a(S'59jvJf_z2UnmFTewTUBseg'
p207
I6
S"the franchise contracts out to a provisioner to make all their cold cuts under the jersey mike's label, but the meat does not have the flavor of new jersey's finest deli meats, thumann's."
p208
tp209
a(g119
I5
S"if you're from a region that doesn't have jitb, it's your basic burger chain, only it serves breakfast all day, and the menu runs toward the daring side, with occasional forays into wth?"
p210
tp211
a(g189
I11
S'the fresh noodles that i had to search through the broth were stuck together in one mass under a small pile of canned tomatoes, the accompanying spinach also lost somewhere in the broth.'
p212
tp213
a(S'5hyXaELZOyxiyBS3hHUohg'
p214
I7
S"i ordered the 10oz fillet mignon with demiglaze and asked for 'extra sauce on the side', medium-rare with the truffled macc and cheese, and broccoli with garlic and oil for my two sides."
p215
tp216
a(S'13VXiLU1IWao3MU-Fp3h6Q'
p217
I8
S'i mentioned that boiling crab frozen crawfish is 6.99 and that hot n juicy frozen crawfish was 6.99....why are we being charged $10.99 for frozen crawfish if that is not the marketprice.'
p218
tp219
a(S'AkbJwBJj1guobBp4W_jfWA'
p220
I16
S'you would figure that a restaurant actually publish their prices (except for the really high end places which employ the snobby tactic of, "if you have to ask, you can\'t afford it" bs.)'
p221
tp222
a(g18
I2
S"but since everyone else ordered prime rib i bumped up my rating to a 4 star, and if service was the only thing i was rating then they'd get a 5 star, the busser and server were amazing."
p223
tp224
a(g21
I2
S'as we were trying to decide what to have for dessert, the manager came by and introduced himself, very friendly staff, and soon after we had a rosemary caramel cheesecake on the house!'
p225
tp226
a(S'54ELz59pXUXbFd7i7k3wlw'
p227
I3
S'we were told because we did not have a reservation they could not sit us by the window, but throughout our entire meal there were at least 6 window tables open, that were never seated.'
p228
tp229
a(g134
I16
S'the steak was a nice 4oz, the lobster was a nice size, but the "prawns" looked like shrimp....they were certainly on the small side, she received two and i was lucky enough to get one.'
p230
tp231
a(S'-XOiqy_b_N4RXiZ3M4Me3Q'
p232
I6
S"of course a couple other good things about this location is that if the weather is good there isn't a much better patio for eating then right there outside, out front of hearst tower."
p233
tp234
a(g103
I7
S'other menu options included big eye tuna tartare with taro chips and ginger cucumber relish or cornmeal crusted calamari with salsa verde and whole grain mustard sauces for starters.'
p235
tp236
a(g128
I6
S'for an entree i had the lamb chops and my friends had the scallops - while awaiting dinner tony offered us to take wine & go out on the deck to see the cityscape; the view was great!'
p237
tp238
a(S'8MT-jnwNj0kYnkBAD_y6TQ'
p239
I1
S"on weekend's they'll have a cover, but this is offset by the lack of a bathroom attendant, so the overhead expense for going out here is in line with the rest of downtown charlotte."
p240
tp241
a(g91
I3
S"so i'll be the first to admit, i'm a male 30-something showing up alone on the saturday before mother's day, without a reservation and wearing a tshirt and jeans (nice ones though)."
p242
tp243
a(S'7oSpnp2rDNddmXwGr1h9nQ'
p244
I0
S'au coeur du march\\u00e9 jean talon, cette place incarne une bonne alte pour se rassasier avant de continuer ses courses de fruits et l\\u00e9gumes, ainsi que de produits artisanaux!'
p245
tp246
a(g189
I7
S'obviously plated ahead and kept in the fridge with which i have no problem per se, but the chilled meat subtle taste was masked by the very cold what was beautifully marbled beef.'
p247
tp248
a(g15
I6
S'this is the most pathetic lobster thermidor i have ever seen covered with a mystery salty sauce that have nothing to do with the dish other than to cover up the cheap ingredients.'
p249
tp250
a(g91
I11
S'i say "well, i\'m pretty hungry, can we do something about that" -- and only then does she bother to explain that the dining room is full but i could find myself a seat at the bar.'
p251
tp252
a(g119
I11
S"(also, don't generalize the recommendation to other jitb locations, as they vary from equally ept but packed with tweaking meth heads to staffed with utter apathy and confusion.)"
p253
tp254
a(g189
I15
S'because of the reputation and rave on line reviews i will tell myself, maybe i made lesser menu selections and will, when i am in phoenix later in the year go back and try again.'
p255
tp256
a(g38
I7
S"in addition to a few glasses of wine, we tasted the nosh board, farmer's salad, the pony burger, the kale and brussels, the pretzel bread, and the caramel apple upside-down cake."
p257
tp258
a(g158
I12
S'the hodge podge of chairs and books and stools outside give me the feeling that if i owned a farm in western massachusetts (the posh part) this is how my children would grow up.'
p259
tp260
a(S'4XczQlVWvzE4LguYcU_1uQ'
p261
I8
S'the view outside was great, but not at 140 f. \n\nwhen we got into the restaurant, there was a weird lion/leopard/africa them to the chairs, but a decidedly french/american menu.'
p262
tp263
a(g21
I3
S'the rosemary caramel sauce was thick and tasty but not overwhelmingly sweet at all, the cheesecake itself was thick and creamy, and the crust was perfectly baked, we loved it.'
p264
tp265
a(g103
I8
S'and a double-cut pork chop with butternut squash-thyme bread pudding...grilled scottish salmon on a crispy potato cake with molasses lime glaze.. several pizzas...for entrees.'
p266
tp267
a(S'3nwToZXKzxmAVaNhUDu_pA'
p268
I5
S"they are always willing to  customize your entree by giving you a sampler of something if you can't decide between two items or change a side if you don't like what's offered."
p269
tp270
a(g158
I13
S'my children would rifle through all my old records and pull out old gems (they have old records for sale here) and i would know that i had raised my little hippie kids right.'
p271
tp272
a(g15
I13
S'then they tell me the restaurant is close and call security, security said call lost and found but they only open till 6 , on a saturday in a casino they are open till 6!!!!'
p273
tp274
a(S'506xd1foWU0Ud4jCduBz4g'
p275
I2
S"we were having juice across from this place and decided to go here for a plain crepe with apple and maple syrup here's what we got:\n\n- overly cooked, borderline burnt crepe."
p276
tp277
a(g24
I8
S"for only about $1.50 or $2 more you can make it a meal - but i'm trying to be healthy so i opted for water at home (insert grimace here cuz they have really good sweet tea)."
p278
tp279
a(g18
I0
S'went last night with my family (party of 7) to celebrate my moms 60th bday..the decor  is nothing special, its exactly the same as it was 10 years ago and i am not kidding.'
p280
tp281
a(S'3EdgCvMG-k_FnXW0cm_dQw'
p282
I5
S"i really appreciated the fact that we weren't rushed and were given really good recommendations from our waiter who genuinely seemed to care that we had a great experience."
p283
tp284
a(S'2OOuuzyaPiDVuWn48jgZJw'
p285
I3
S"everything tasted fresh and unlike many restaurants that use butternut squash tarbell's let the squash shine through rather than ladening it with sugar or other sweeteners."
p286
tp287
a(g198
I31
S"it said 8oz on the menu, but considering that there was a large piece of spine bone going down the middle of the swordfish steak it meant i didn't get much meat out of it."
p288
tp289
a(g73
I2
S'it all works really well, as does the homely and super relaxed feel of the dogs, and seadogs, so this is definitely yet another culinary hit for david ramsden, the owner.'
p290
tp291
a(g125
I1
S'when i made the reservation on open table, i told them that it was my birthday and that we wanted a table on the window, which we got, but not the best view of the strip.'
p292
tp293
a(S'8n_SFFAyDa0q9H6Gikr2JQ'
p294
I2
S'i mean, it was good, but i have heard people ranting and raving about this place for a long time so perhaps the expectations were a lot higher than they should have been.'
p295
tp296
a(g134
I13
S'bread basket of lots of assorted warm rolls arrived with a great deal of butter arrived at the table and i hate to admit it, but i tried a couple - yummy, they were good!'
p297
tp298
a(S'2rKzAUZfJ9FvCkk5YQQqKw'
p299
I22
S"while i wasn't completely enamored with everything, our overall tarbell's experience was a good one, and i definitely want to return to try more menu items in the future."
p300
tp301
a(g27
I9
S"another friend's main course didn't arrive due to a mistake made by the waiter but at least he received his pizza for free when he got it much later than everybody else."
p302
tp303
a(g64
I6
S'because of its location, the cafe is mostly open from spring, through the summer and into mid-autumn and its opening hours are often subject to the whims of the weather.'
p304
tp305
a(g27
I1
S'i was particularly upset about the whole experience as\ni had booked the restaurant having read positive reviews online and on the recommendation of a number of friends.'
p306
tp307
a(S'1O8fyATaHaR5MGCNxljI9g'
p308
I5
S'we got out for $50 each sans tip; you can easily go much higher if you order a couple bottles of wine and some of the pricier meat dishes, which approach the $30 range.'
p309
tp310
a(g30
I10
S'and lastly, of course i always save room for dessert, i was stuck between the vanilla cheesecake with rosemary carmel, and the warm chocolate cake, both were wonderful!'
p311
tp312
a(S'ByFoyAu5FAtE9kcyXT1L5g'
p313
I3
S'they have all the basic types of pizza, as well as some of the more unique (hawaiin pizza is great), but overall this is just a good ny-style thinner-crust pizza shop.'
p314
tp315
a(S'6NW4tCFM-WoVc2CsjENmfQ'
p316
I2
S"however, this restaurant is a bit noisy and the staff had to yell to get my order (i personally don't like getting yelled at before i eat... i need soft, calm voices)."
p317
tp318
a(g24
I6
S"i took my dad here once & he scoffed at the beginnings of his 'samich until he saw the finished product...and could barely finish it (and he can pack away some food!)."
p319
tp320
a(g103
I12
S'excellent service (they also had a wonderful reisling by the glass -- hard to come by), streamlined, upscale surroundings -- all in all, a terrific dining experience.'
p321
tp322
a(S'6mSUt3z39vtdSwq7cgeAtg'
p323
I5
S"bonus is they don't have a specific time for breakfast or lunch... they offer curly fries and they have plenty of offerings that i don't have to specify no tomato on."
p324
tp325
a(g15
I2
S'there is nothing voodoo about it , the old decor was fun and different, this one is just different for the sake of not be the same but very badly done and done cheap.'
p326
tp327
a(g91
I19
S'it came out medium, it was kinda charred, and really tough for "35 day aged" hand-picked angus prime -- more like the consistency of medium london broil from safeway.'
p328
tp329
a(S'2DenvsteG7TlgC_GxYTF0Q'
p330
I4
S"my coffee came in it's own french press (which i will now buy for myself) and the breakfast sandwich had bangers, ham, cheese, bacon and egg on a toasted brioche bun."
p331
tp332
a(S'0-PJDm5vW9ZfHsF2mg_y6g'
p333
I4
S'i also really appreciate it when dining in a nice restaurant for a special occasion if the restaurant asks when making a reservation and if they at least mention it.'
p334
tp335
a(g64
I1
S'their seating is mostly outside, where a variety of colourfully clashing chairs and tables are ordered randomly in front of the cafe, giving it a homely quirky look.'
p336
tp337
a(S'AFVni8_I2CEAluAb-wSwMA'
p338
I6
S'a group next to us ordered a variety of things on the appetizer menu and made the task of choosing one quite difficult, but we decided to go with the pommes frites.'
p339
tp340
a(g125
I3
S'other than that, the food was great, the lobster bisque was amazing, we both got the voodoo menage a trios (fillet, lobster tail & shrimp) which was also delicious.'
p341
tp342
a(g27
I6
S"we were seated at our\ntable for thirty minutes when having failed to get anybody's attention, i went up to the counter to politely ask that our food order be taken."
p343
tp344
a(g198
I7
S"the new menu still has the old italian favourites of pizza and pasta, but there's now burgers, a larger grill menu with steaks and the desserts are american-tastic."
p345
tp346
a(S'6gMvUMU-ePd-v71x2xMH3g'
p347
I4
S"the only thing i didn't care for - and this is personal preference - the kitchen adds bacon to just about everything: for me it was the salad and the risotto rice."
p348
tp349
a(g299
I7
S"upon walking into tarbell's, the hostess was incredibly friendly and welcoming and the atmosphere was warm and inviting while still being casual; my kind of place!"
p350
tp351
a(g38
I9
S'also, if you go for the burger, you have to request it with the fried egg... the menu makes it seem like it will come with the egg automatically (and our did not).'
p352
tp353
a(g86
I1
S'my one friend, who usually eats gluten-free, was being tested for celiac disease, so she was on a diet in which she had to eat a certain amount of carbs per day.'
p354
tp355
a(g15
I3
S'then the setting, water stains on the silverware and bus boy that pour tap water into my glass with bottled water in it, i guess job training cost too much also.'
p356
tp357
a(S'84istL3L2e43HUrFHtE9wQ'
p358
I6
S'the gentleman who was going to sing came up and wanted to check with us if it would be alright if he preformed, he explained his songs could be a little vulgar.'
p359
tp360
a(S'7sEAhmdBMxBqNb5pk47vHA'
p361
I3
S"plus, i like how it's all old school and they serve you your iced tea on a saucer with a spoon and you get a yummy dinner roll with crackers next to your salad."
p362
tp363
a(S'28EF5Wcliya66WIqRV3TVQ'
p364
I1
S'i really do not have one complaint the food was stellar the fish was excellent flaky delicious wine the waiter suggested was excellent everything was wonderful.'
p365
tp366
a(S'7JIFj4B1DOYUFgcPokc0PQ'
p367
I0
S'a must on any visit to jean-talon market and my favourite crepe spot in montreal, mostly because the crepes served here feel authentically qu\\u00e9b\\u00e9cois.'
p368
tp369
a(S'56ihVgKyF8BJx1pTGxnrUA'
p370
I5
S"no problem whatsoever with wait staff  - very good service each time from anthony and jeremy -- cheerful, knowledgeable about the food, and didn't miss a beat."
p371
tp372
a(g189
I9
S"on the server's recommendation i ordered housemade ribbon noodles with homemade chicken fennel sausage, tomato, spinach in a rich buttery broth for my entree."
p373
tp374
a(g18
I1
S"if i was rating strictly on my entree which was the filet cooked meduim (which is always what i order at any steak restuarant) i'd have to give them a 2 star."
p375
tp376
a(g227
I5
S"the nicest person there was the photographer who was so kind and took our picture out on the patio, and to my surprise caught my boyfriend's proposal as well."
p377
tp378
a(g125
I0
S'went to voodoo steak for my birthday because we were staying at the rio, got a small discount because we were part of the total rewards program at the hotel.'
p379
tp380
a(g86
I8
S"my gf friend, on the other hand, really enjoyed her slice, but she said she suspected this was just because it'd been so long since she'd actually had pizza."
p381
tp382
a(g148
I5
S"i did not finish the app, partially because it was so huge and partially because it wasn't life-altering and i wanted to hold out for better flavors to come."
p383
tp384
a(g70
I26
S"the owners or cooks or two and the same are two younger gentlemen perhaps in their 30's hip youngsters that's seem to be culturally  global friendly people."
p385
tp386
a(S'73GNaRzVXTH75yaInmV2Qw'
p387
I7
S'i started looking at the menu and was looking for the eggrolls and edamame and all of the dishes i a used to but to my surprise none of those were on there.'
p388
tp389
a(S'64cY1Z-Kkccy_8Qy3_GZTQ'
p390
I0
S"it really doesn't matter if you are coming to eat, happy hour, meet up before going out or hitting this place late night ri ra is a great spot in charlotte."
p391
tp392
a(S'1xLMUHf8e6DEE8nYHgQlwg'
p393
I0
S'great green chilli burro enchilada style...like traditional mexican food here 50 years ago--and you can get it in a mini version, which is a normal portion.'
p394
tp395
a(g217
I11
S'i asked if they can charge me for mp of frozen instead of mp of fresh crawfish and all they did was give me a 10% discount off of the next visit...wth??????'
p396
tp397
a(S'9c-dc0NwXlGNt5PoYA8lcw'
p398
I10
S'the parmesan broth on the home-made ribbon pasta dish was indescribably good, and the rosemary caramel on the (outstanding) cheesecake was truly delicious.'
p399
tp400
a(g38
I14
S"next time i'll try a different dessert though; the caramel apple upside-down cake wasn't all that... it was more like a simple spice cake; nothing special."
p401
tp402
a(g27
I8
S"when our starters finally arrived, one of my friends didn't receive his order but he agreed to accept it when it arrived much later with the main courses."
p403
tp404
a(g148
I2
S'after a great cocktail at the bar (love the atmosphere including the open kitchen -- very warm space with high energy), we sat and enjoyed the mussel app.'
p405
tp406
a(S'-_M3ZP6GMvz35CEjQcHQQw'
p407
I3
S"we ordered our food at 12:15 and asked where our food was 12:45. didn't get our food until after 1. i had a meeting and told the waitress to nix my order."
p408
tp409
a(g198
I13
S"now, the dogs provide good grub with slightly 'different' dishes (the regular the dogs offers stuffed lamb's heart for example) but at affordable prices."
p410
tp411
a(S'66_bBhcbtpf4_CcMCftzUQ'
p412
I0
S"the bread was blase, but the vegetables were among the best as well as the salmon and then the tiramisu was the best i've ever had, they make it on site."
p413
tp414
a(g30
I12
S"dining is one of my favorite ways to explore the city, and i'm so glad to have made a last minute decision to enjoy my thursday night at your restaurant."
p415
tp416
a(g27
I10
S"on the whole the staff were friendly and helpful but there was a waitress with an aussie accent who most certainly shouldn't be in the service industry."
p417
tp418
a(g15
I8
S'lobster thermidor is a french dish consisting of a creamy mixture of cooked lobster meat, egg yolks, and cognac or brandy, stuffed into a lobster shell.'
p419
tp420
a(g91
I23
S'pfft -- i swear it was simply a pile of salted, wilted spinach -- it had no seasoning i could detect, much less any kind of cream or butter or anything.'
p421
tp422
a(g151
I4
S'even though the players have undoubtedly found somewhere cooler to hang out, i still thoroughly enjoyed the old school steakhouse ambiance of pink pony.'
p423
tp424
a(g64
I5
S"if you're out with family, the cafe provides a mishmash of children's toys to play with, so you can lounge and enjoy your food and drink (or join them)."
p425
tp426
a(g131
I21
S"our server who's name i can't remember was knowledgable and punctual but not over attentive and had all the best beer suggestions to accompany our meal."
p427
tp428
a(g220
I0
S'went here for a pre-game meal, looking forward to seeing my beloved chicago bulls whip the bobcats butts (which they did, by the way, with out d-rose).'
p429
tp430
a(g189
I3
S'i was quickly served  a tasty olive oil and bread for dipping, however the bread tasted very much like frozen par  baked bread, that had been reheated.'
p431
tp432
a(g134
I19
S'for dessert sis had the creme br\\u00fbl\\u00e9e and said it was just great, i did manage to get my spoon in there and taste it, and yummy was that good!'
p433
tp434
a(g131
I20
S'i love the play on old fashioned desserts turning them into something new and exciting instead of the overplayed copout desserts\nservice was fantastic.'
p435
tp436
a(S'9PCx7yd9FzsOLIHVlul6jA'
p437
I3
S'we got the ma po tofu, seafood with bean curd, yu xiang eggplant, sizzling rice soup, water-boiled fish, and a special order (beef with bitter melon).'
p438
tp439
a(g158
I7
S'they will play noncompetitive sports, wear hemp and i will have had a water birth with a midwife in my home - with sage burning again for a good vibe.'
p440
tp441
a(S'2d8tj8Z-RG19A3PBTEb8vg'
p442
I4
S"one hint: if you don't want to wait 30 minutes to get a drink from the bartender then snatch up a cocktail waitress and they'll get in bout 5 minutes."
p443
tp444
a(S'12bupTNyycNPXhf9JXXyzw'
p445
I2
S'i recently took ten business associates there for a meeting, and i got nothing but compliments the next day on such an excellent choice of restaurant!'
p446
tp447
a(g131
I15
S'the boyfriend opted for my other childhood flashback for his dessert and got the cream sickle pot du creme with these awesome little biscotti cookies.'
p448
tp449
a(g232
I3
S"the service was ok, not really over excited to serve but i imagine that's because this place gets really packed so they stick to the business at hand."
p450
tp451
a(S'8nPjYUQT1nnWeKDKMK_WHg'
p452
I1
S"i've only been a couple of times since it's across town for me,  but it made enough of an impression for me to want to go back whenever i'm that way."
p453
tp454
a(S'3QrypXOWpAlLd_RXuwCZoQ'
p455
I6
S"but we ordered the wedding cake from them and i must say it was the best cake i've ever had in my life and i am in my sixties so that is saying alot."
p456
tp457
a(S'BHowk_0tJTGlTvV_WlMb3g'
p458
I4
S'a delivery takes 90+ minutes, and even asks customers to go find their car to get food, and they just sit there in the car without even getting out.'
p459
tp460
a(S'5k_6P-Ipz2O7jYcOac2ldw'
p461
I5
S'the pony salad was a little more sizeable, less sweet as it was topped with blue cheese and bacon bits, and the smoked salmon was a fantastic touch.'
p462
tp463
a(S'4EnMpEDC3FwwLXB18EwBQg'
p464
I2
S'i hate people that review a place because there are not enough people, unfortunately new local business have to start somewhere guys, figure it out.'
p465
tp466
a(S'0EUwsoR8sKcXUcq2KKA-oQ'
p467
I8
S"don't waist your time and money, this place needs chef robert irvine for a restaurant rescue and the present chef needs to go or chance his talents!"
p468
tp469
a(g361
I1
S"outside of spring training season, it's a quiet little steakhouse with a bunch of old people eating their mid-day meals and some business meetings."
p470
tp471
a(g113
I6
S'desserts included very tasty soft ice cream, plenty of things to make it into a good sundae, plus a good variety of cakes, pies, cookies and so on.'
p472
tp473
a(g119
I9
S'you will not experience revelations on the scale of smashburger, and these really aren\'t "better burgers" so much as "way more out there burgers."'
p474
tp475
a(g83
I7
S'it sounded like there was alot more fun to be had upstairs(live band, dance floor etc) but we were just to tired to check it out, maybe next time.'
p476
tp477
a(g323
I2
S"but before you judge i want you to think about having late meetings, or a busy night where you're at work, then the gym, then off to meet friends."
p478
tp479
a(g33
I1
S'of the dogs, it is also on hanover street, but is at street level and has wonderfully large windows to gaze out from (or longingly gaze into....).'
p480
tp481
a(g44
I6
S'the ingredients were decent but when it comes to restaurants, or even fast food if you want to call it that, i want to leave wanting to come back.'
p482
tp483
a(g24
I2
S'this one recently went thru an ownership change but the staff is just as friendly as the original, so no worries there (or w/the quality of food).'
p484
tp485
a(g64
I8
S'in other words, the pavilion is more than just a place to get a bite, but a place to spend the day, the night, or sometimes even the whole summer.'
p486
tp487
a(g73
I5
S'there are also pizza, soup and salad options to be had, all reliably very decent, so hesitate not in entering any of the dogs restaurant portals.'
p488
tp489
a(g103
I5
S'i opted to go with a fairly traditional entree of butternut squash ravioli with roasted chestnuts, spinach and brown butter and it was exquisite.'
p490
tp491
a(g261
I10
S"our server forgot my order of truffle mac and cheese and there weren't really truffles in it (they faked out on me when they finally brought it)."
p492
tp493
a(S'41Uh-5XP9vH1zNa_c4rnlw'
p494
I12
S'it was served with banana peppers a balsamic vinegar dribble, and a red sauce that reminded me of salsa but with a more tomato base and no spice.'
p495
tp496
a(g182
I9
S"i don't mind that, but for a regular friday night when i want sweet and sour chicken, i'll end up ordering from a run of the mill delivery place."
p497
tp498
a(g398
I1
S'my mom and i went here on the first night of a week-long trip to az, and the food we ate for the rest of the trip just made us yearn to go back.'
p499
tp500
a(g198
I37
S"if you expect good food but without the fuss of nice presentation, but rather how you'd serve it yourself at home, then you'll be a happy bunny."
p501
tp502
a(g198
I11
S'the waiters were all really friendly and prompt, despite that at the beginning of the evening there was only one guy one and it was busy at 5pm.'
p503
tp504
a(S'5VMhcWSni4pqsQ-e5p6UJg'
p505
I2
S'scotch beef with mashed potatoes is my favorite, but everything i have had has been just as good... pepper steak, kale chips, ceasar salad, etc.'
p506
tp507
a(g158
I1
S'i have no idea why except to say it has a really "good vibe" but here, i\'ll set the scene for you:\n\ni am pretty sure that one day i will be old.'
p508
tp509
a(S'0NDTXGpOTN_CdgLKDwbwHA'
p510
I1
S"food comes out quickly, even if it's busy and a rather complicated order when our son's baseball team comes by for after tournament festivities."
p511
tp512
a(g182
I20
S"i like that this is different from your usual chinese fare, and i'm looking forward to trying a few new things (probably not pork belly though)."
p513
tp514
a(g73
I1
S'the lighting and whiteness of this restaurant make it very attractive, as does the sweeping bar and signature pooch art adorning the back wall.'
p515
tp516
a(S'6F5vS9netV1Gm7AOqMuG7A'
p517
I7
S'they replaced two very eclectic previous waiters who were a hoot, one was a german former actor and the other a dancer and lover of old movies.'
p518
tp519
a(S'3-qQnimhVeYHuzfXo1SqJw'
p520
I1
S'my mom has been living there for years, and we were desperately looking for something special among the chain restaurants and fast food places.'
p521
tp522
a(g217
I5
S'after dinner i asked the waiter to go to the kitchen to ask if we were served frozen crawfish because it certainly tasted like frozen crawfish.'
p523
tp524
a(S'B1ljVixT1lqOOfXAFeCFjQ'
p525
I6
S"they have some american chinese dishes too, but i didn't see the point in getting them, since i like trying new things and their menu is huge!"
p526
tp527
a(g122
I12
S"the price won't break the bank, but i look at several things when rating including: 1) food   2) value  3) service  4) d\\u00e9cor  5) location"
p528
tp529
a(g299
I18
S'however, i guess they ran out of it the night that we were there, so the manager came over and offered to substitute with other salad options.'
p530
tp531
a(g308
I4
S"even though the runners made a slight gaff (brought our entr\\u00e9es before our salads) it's not going to stop me from giving them five stars."
p532
tp533
a(g119
I4
S"hours are more limited than for other jitbs in the region, so check their web site before going -- but they're open when they say they'll be."
p534
tp535
a(g189
I5
S'the server, who when i asked about the menu, what she liked, did not tell me about the specials i heard her recite at other tables around me.'
p536
tp537
a(g198
I29
S'now, i quite liked this at the time as i usually request no chips if it does come with, and liked that i could add whatever side i wanted on.'
p538
tp539
a(g275
I3
S"super hard, not soft at all\n- full of butter, crepe was basically deep fried in butter\n- super sweet and oily we didn't even taste the crepe!"
p540
tp541
a(g47
I5
S'we simply asked our server questions about the mixed vegetable dish , we decided to pass since the salmon was coming out on a bed of greens.'
p542
tp543
a(g338
I18
S"there are quite a few places to spend a nice evening in phoenix and this is a good choice, but i wouldn't be clamoring to come back, either."
p544
tp545
a(S'ADqwwjBUilyXX4rEazGgjg'
p546
I5
S"in this area miu's does not disappoint; formica tables and cafeteria chairs lead way to a tempting tome of a menu filled with many delights."
p547
tp548
a(S'AxDBxV87AhAwNouYdbOWHA'
p549
I23
S'overall, a nice meal, a nice view, and other than my empty wallet, nothing substantial to complain about not look forward to for next time.'
p550
tp551
a(g76
I5
S"once you get past the location, building, and dining room and you'll have some of the best chinese food in the valley....or order take-out."
p552
tp553
a(S'8pGFz2MZj0Es-KLTWB9s4Q'
p554
I23
S'we had to call another waiter over who reluctantly grabbed her side  dish, after she was finished with her main course for quite some time.'
p555
tp556
a(g189
I8
S'add to that, the overpowering amount of vinaigrette dressing on what looked like pretty arugula and the carpaccio was almost indiscernible.'
p557
tp558
a(g7
I7
S"i'll be back with more specifics on the dishes we tried, but highly recommend the glutinous rice balls with the sweet sesame paste dessert."
p559
tp560
a(g268
I7
S'mark comes around personally to visit each table & has a friendly, top notch staff to support him that seems to genuinely like being there.'
p561
tp562
a(g30
I4
S"....seriously, what an experience, while we weren't celebrating anything special, tarbell's truly provided us with a remarkable experience."
p563
tp564
a(S'0tn1FR6X5PqB_q8R30WJAA'
p565
I2
S'the service was bad, the waiter forgot simple utensils, and after waiting 5 minutes for him to bring me a spoon, i had to ask someone else.'
p566
tp567
a(g549
I11
S"there is a 20% discount if you show your penn & teller tickets.. which you'll need because...\n\ncons: it's much too pricey for the quality!"
p568
tp569
a(g437
I12
S"i'm predicting this will be one of my favorites for either dining out or getting food to-go if i'm in the mood for authentic chinese food!"
p570
tp571
a(S'6acTSWhdkRGjvMu25B4Mjw'
p572
I2
S'we were turned away when we came in at quarter to 8, thinking the were open till 8:30. the websites including this one all say 8:30 pm pt.'
p573
tp574
a(S'4oLDJpoapJtZUB8Ue3j2iQ'
p575
I0
S"the filet mignon looks as if it's straight out of a magazine ad for filet mignons, perfection and how a filet mignon is supposed to look ."
p576
tp577
a(g128
I2
S'i was pleasantly surprised that this restaurant is on the 50th floor of the hotel & had an amazing panoramic view over the strip & beyond.'
p578
tp579
a(g116
I5
S'i also like that our server was very confident in her recommendations and was willing to tell us something was better than something else.'
p580
tp581
a(g131
I4
S'their house made bread went perfect with the cheese and the little salad it came with but i wouldnt have minded another kind on the plate.'
p582
tp583
a(g546
I6
S"we fell in love with the salt & pepper shrimp, spicy wings (reminiscent of simon's @ palo alto's hunan garden) and the spicy green beans."
p584
tp585
a(S'8jRIZsysu-YBXZlkm04U2w'
p586
I9
S"they also get kudos for having a comfortable seating area inside, something most pizza shops of their calibre don't have the space to do."
p587
tp588
a(g586
I7
S"my girlfriend and i both remarked that these roasted, blackened wings were actually better than most fried wings we've had in pittsburgh."
p589
tp590
a(S'8Spqqn02HVRktVCLnZY8Ag'
p591
I2
S'maybe u guys can choose golden harbor to eat the chinese restaurant\ndo not come to this bad restaurant\nyou will be regret for your choice'
p592
tp593
a(g244
I4
S"c'est la simplicit\\u00e9 et la qualit\\u00e9 des produits qui l'emportent sur la valeur des chaises et des tables sur lesquelles on mange."
p594
tp595
a(g148
I6
S"i ordered the fish special (can't remember the fish name now, but it was a sea-bass like white fish) and my date ordered the peppersteak."
p596
tp597
a(g91
I2
S"the positives, straight-away:  the ambiance, decor and the bartender serving me were all perfectly adequate -- and that's where they end."
p598
tp599
a(g198
I10
S'huge tall ceilings and mainly white, white, white walls leave it feel very airy and open although it does get warm in a comfortable way.'
p600
tp601
a(g207
I11
S"pleasant side of the manasquan inlet and jenk's pier with surfers heading out, a nice touch of back home, but that's the best i can say."
p602
tp603
a(g91
I4
S'even if you consider gender and age profiling aside, there is absolutely no excuse for how i was treated when i walked through the door.'
p604
tp605
a(g299
I6
S"so when my friends jared and jane b suggested we do a double date at tarbell's during the recent az restaurant week, i was totally game."
p606
tp607
a(S'2bfoshJlkHgx9IFugJr3Bw'
p608
I1
S"i'd often stop in here before grocery shopping across the plaza to quench the munchies, shopping with the munchies is never a good idea."
p609
tp610
a(g393
I1
S'very disappointed in the ground beef taco--meat blah, and a preformed taco shell that tasted like the boxed ones from the grocery store.'
p611
tp612
a(S'-zShBEPM8A2HliiZ--KyYA'
p613
I8
S"i literally wondered if i was drinking watered down bourbon because i didn't taste a tone of ginger or bourbon in my bourbon and ginger."
p614
tp615
a(g145
I7
S"we didn't seem to think it was right and when we called back to ask them to break it down for us, the girl said she was 20 dollars off."
p616
tp617
a(g86
I4
S'while the slices were okay, my non-gf friend and i were a bit disappointed, since, for $4 a slice, we expected pretty incredible pizza.'
p618
tp619
a(S'5sj8LuAWFgfgjiHV6tTjZQ'
p620
I7
S"i haven't eaten scallops in years after an icky food poisoning incident but i had to try a bite and they were melt-in-your-mouth nummy."
p621
tp622
a(g268
I2
S"now it's the place we go for a wonderful night together or to bring out of town guests or even those who've never experienced this gem!"
p623
tp624
a(g182
I14
S'we had hot tea that came in adorable tea cups and water that came in typical plastic, again contrasting the classy with the industrial.'
p625
tp626
a(g338
I12
S'for dessert it was again the table next to us who ordered a variety and made it difficult to pick, but we went with the bread pudding.'
p627
tp628
a(g338
I0
S"my dad came to town for a visit and when he's in town i always take the opportunity to try a restaurant usually out of my price range."
p629
tp630
a(g198
I1
S'a little confusing that the italian branch of the dogs restaurant chain has gone all american on us, but trust me, it is a good thing.'
p631
tp632
a(S'60LmU8XCOm_ZaZP5qs2-5Q'
p633
I1
S'she said that it was a place that she came to with her friends whilst in high school and wanted to take me there for a relaxing lunch.'
p634
tp635
a(g134
I10
S'not the toppings i would have preferred, however it was very tasty, and 10 out of 10 on that choice, my sister ordered the onion soup.'
p636
tp637
a(g158
I6
S'they will eat seeds and organic fruit for snacks and drink soy and never say politically incorrect things (like their mother hahahah).'
p638
tp639
a(S'2f2l3Bglv_mNzRk3OMZ-Dg'
p640
I0
S"i'm on a mission to find a good chinese restaurant that is reasonably priced in chambana, and i was happy with south china restaurant."
p641
tp642
a(g113
I4
S'next it was on to the salad bar, with lots of tasty things to put on your salad and to enjoy on the side, such as good cottage cheese.'
p643
tp644
a(g52
I0
S"other than the sold out specials at our 7:30pm seating at tarbell's i was pleased with the restaurants' favorable aesthetic and crowd."
p645
tp646
a(g308
I0
S'my girlfriend had braciole, which is a kind of beef roll with cheese inside of it cooked in a tomato sauce, and wow, was it fantastic.'
p647
tp648
a(g461
I0
S'top notch food (apparently they have a renowned chef), decent service, prices are as fancy restaurants go, great ambiance, i love it.'
p649
tp650
a(S'5U7urMiT9h_eTnlgv_uauw'
p651
I4
S"naturally, this is to be expected for a new no-name sort of place, but i wanted to trust my fellow yelpers' enthusiasm for the place."
p652
tp653
a(g268
I8
S"being a creature of habit, i usually get the ribbon pasta with chicken sausage and it's perfection, has me dreaming of my next visit!"
p654
tp655
a(S'3A5jK284MfFQk8oxS2sTug'
p656
I10
S'since this is the only indo-chinese restaurant in the valley, clearly the owners got complacent, and there is not enough supervision.'
p657
tp658
a(S'26s6IlQcr6C-dacECQ_20Q'
p659
I6
S'when an owner is too cheap to pay visa/mastercard 2% of a transaction, you know they are going to be cheap with the food quality too.'
p660
tp661
a(g38
I12
S'"niman ranch" bone-in ribeye to the salmon, scallops, grouper, and turkey pot pie and more... there really is something for everyone!'
p662
tp663
a(S'AxJ0MIegwWq6luou4knmyA'
p664
I2
S'much different ambiance than the pasta shop bur there was a nice waiter who looked like a cross between john waters and johnny depp.'
p665
tp666
a(S'7BQUgmcdX3p4kLwI31MVCQ'
p667
I0
S"i decided to try this tarbell's after reading all the great reviews and it didn't hurt to hear about the owner winning on iron chef."
p668
tp669
a(g370
I3
S"the nosh plate is very good, i love the roasted beet salad, and the pork chops we had are among the best i've eaten in a restaurant."
p670
tp671
a(g158
I2
S"and as an old lady i hope to have a very deep voice, long, crazy hair and wear flowy skirts and ethnic jewelry and i'll be very zen."
p672
tp673
a(g299
I9
S'he was patient with both my husband and our friend jared as they went back and forth on what they wanted to order quite a few times.'
p674
tp675
a(g128
I5
S'we picked steak tartare and lobster bisque for appetizers - the tartare rivaled any i have had in france and the bisque was amazing.'
p676
tp677
a(S'05v3bRo4BiZMNRII_hJ0PA'
p678
I0
S'ok, this current rating only applies to the horrific braised short ribs that they unfortunately served me at dinner the other night!'
p679
tp680
a(g1
I3
S'okay, i am not from the northern part of china where people make this type of dumplings from scratch at home in a daily basis or so.'
p681
tp682
a(g586
I0
S'great, huge new york slices are to be had at pizza sola and the toppings are interesting enough to set them apart from other shops.'
p683
tp684
a(g387
I4
S'i quickly found out that i have enjoyed eating very americanized chinese dishes with the sesame chicken and sweet and sour chicken.'
p685
tp686
a(g387
I2
S'while most are giving it 5 stars, i am giving it 4 stars because there were not very many dishes that i could eat or wanted to eat.'
p687
tp688
a(g214
I9
S'i asked for my side of sauce and they brought out an amount that still wasnt enough for the whole steak.....i gave up on the sauce.'
p689
tp690
a(S'Aauep7_I5QfmP3Tf9WUcfA'
p691
I6
S'i will definately frequent the pink pony....koodos to managemnt, bret c, the chef stephen e, and my server anthony.... :-) :-) :-)'
p692
tp693
a(g294
I3
S'i got the scotch beef and it was delicious for the first few bites, and then i realized it tasted like the barbacoa from chipotle.'
p694
tp695
a(g586
I6
S'however, pizza sola roasts theirs in their insanely hot pizza oven, giving them a nice charred skin that is packed full of flavor.'
p696
tp697
a(S'5da-9hR4LeMQ4cFygYABXQ'
p698
I5
S'the shepard pie was especially good and the sweet potato tater tots with a side of guinness bbq sauce was a hit with entire table.'
p699
tp700
a(g128
I3
S'i was traveling with friends & we had no reservation, but on a monday night the restaurant was quiet - we were seated immediately.'
p701
tp702
a(g21
I8
S'side of mashed potatoes were well mashed and not runny at all, gravy is by request and has a charred, oak taste to it, delicious.'
p703
tp704
a(g220
I1
S'i digress.....anyway, i ordered their fish and chips, not necessarily a "safe bet" here in charlotte, because most use fishy cod.'
p705
tp706
a(S'9lE6QzNJI0h1tSoXvFpozA'
p707
I2
S'my evaluation:\n\nfacility: good- really cool place, apparently the bar and most of the accoutrements were shipped in from ireland.'
p708
tp709
a(g640
I8
S'sometimes a bit slow, but there was one waitress for the entire dining room of 10-15 tables, so it was completely understandable.'
p710
tp711
a(S'1sxYXd58qW9jTmcAN7on_A'
p712
I5
S'the only thing is that their prices are a bit too pricy, for where they are, how "decorated" they are and their level of service.'
p713
tp714
a(g44
I1
S'location was well located if you live in central phoenix, but it\'s the food that matters and really all i can rate it is a "meh".'
p715
tp716
a(S'0OZoT5C44iWEQTMNnVkROg'
p717
I8
S'my husband had the mr. fish which last night happened to be halibut, it was served with the best tasting hummus i have ever have.'
p718
tp719
a(g103
I1
S'tarbell\'s uses locally grown organic produce & i like the statement on their menu "eat well and often" -- my sentiments exactly.'
p720
tp721
a(S'8PRhFeNksbYq45ay0_XKYA'
p722
I0
S'the view is extremely good, the wait service was excellent (thanks sam) its nice to have an engaging but not overbearing waiter.'
p723
tp724
a(g148
I0
S'like many of the reviewers here have noted, i had pretty high expectations before we ever sat down at our table on friday night.'
p725
tp726
a(g214
I11
S'the macc and cheese could have been from any mediocre buffet and the broccoli was practically raw.....way too crunchy and tough.'
p727
tp728
a(g91
I17
S'just all meat and parmigiano -- a little more olive oil and some simple dressed greens would have made that dish so much better.'
p729
tp730
a(g91
I14
S'trying to put that behind me, the lady barkeep takes my drink order, and my food order:  carpaccio ($17) and the ny steak ($44).'
p731
tp732
a(g640
I4
S'-my so ordered the shrimp lo mein and i stole a bite of the shrimp, and it had very good flavor, and he said that he enjoyed it.'
p733
tp734
a(g333
I6
S'we had the artichoke leaves for a starter and i would say they were ok. nothing special, i probably would not order those again.'
p735
tp736
a(S'8sqSjQZ8F5H5RqNo1Nj1vg'
p737
I0
S'for as busy as this location is for lunch, it is always clean, the staff is friendly, and the sandwiches are consistently good.'
p738
tp739
a(g27
I2
S'as the majority of my group were only in edinburgh for the weekend, i wanted them to enjoy a nice meal in a relaxed atmosphere.'
p740
tp741
a(g33
I5
S'the food here is incredibly good value and of exceptional quality, i have eaten here a lot and have never had a bad experience.'
p742
tp743
a(g125
I6
S'views were awesome, music was good and the crowd was right around our age which was nice since we are not 20 or 30 somethings!'
p744
tp745
a(g620
I12
S'the atmosphere felt a tad dated but it almost made it all the more charming... kinda like we were stepping back in time a bit.'
p746
tp747
a(g268
I15
S"warm chocolate cake, profiteroles & creme brulee are just what the doctor ordered to put this one on the top of anyone's list!"
p748
tp749
a(g158
I3
S'i might even be one of those ladies that burns incense and sage all over my house and tells people that they have an old soul.'
p750
tp751
a(g613
I1
S"they were doing trivia in the back of the place, which was fine, but a little distracting if you weren't involved in the game."
p752
tp753
a(S'9Pyn7uiSB-7fWtziZL2Zbw'
p754
I1
S'had the finger sandwiches (chicken, pulled pork, and something else), chips and spinach dip, lobster cakes, and potato cakes.'
p755
tp756
a(g122
I4
S"some of the dishes you won't find on the menus here in the states, but they are pretty common in china, taiwan and hong kong."
p757
tp758
a(S'8OARXBcK-X4Ykf5CDq4m7Q'
p759
I4
S'my dining companion had the crispy duck which was equally slathered in what tasted like bottled or pre-made production sauce.'
p760
tp761
a(g239
I5
S"she had no idea what it was but made it for me using the iphone recipe, injecting some uniqueness into my ri-ra's experience."
p762
tp763
a(S'6bYVb3a5mEjADI0-zTgDrA'
p764
I3
S"the crust is cracker-crispy, and they warm up your slice after you order it so it's always served at the perfect temperature."
p765
tp766
a(g15
I11
S'then after dinner got even worse, i left my cell phone there so i figure i call the restaurant to ask them to hold it for me.'
p767
tp768
a(g214
I3
S"the glass was not frosty and the heineken was so skunky that it tasted like it was in storage for months...couldn't drink it."
p769
tp770
a(g285
I6
S'we asked the waiter to suggest a glass of wine and the wine he suggested went very well with the dish and was very enjoyable.'
p771
tp772
a(g678
I2
S'went there with my work-mates in celebration of a major milestone, and our big boss picked up the tab (which is always nice)!'
p773
tp774
a(g333
I2
S"for the negatives, which are few, i would say it didn't feel as cozy and private as i would like to celebrate an anniversary."
p775
tp776
a(g220
I14
S'not really bad, but my only complaint that i did share with them was that they did not list any prices on their liquor list.'
p777
tp778
a(S'AIEAij3n8s_NyZpN6lRswA'
p779
I2
S'we eat in restaurants frequently, and this is as thoroughly fine a dining experience as i have had in a very very long time.'
p780
tp781
a(g70
I6
S'placed our order....... i ordered mushroom stir fry and green beans with garlic sauce my mate ordered shrimp with snow peas.'
p782
tp783
a(g667
I3
S'the service was very good, our waiter was very knowledgeable about the menu and made great recommendations on what to order.'
p784
tp785
a(g106
I8
S'they will get my business again, their subs are tasty, with quality ingredients, and they are committed to customer service.'
p786
tp787
a(g268
I1
S'it first started with "the place" the hubs & i would come to celebrate an event....anniversary, birthday, mother\'s day, etc.'
p788
tp789
a(g33
I3
S"the menu is italian influenced, you'll find pizza and pasta on the menu alongside dogs's staples like coley and skirt steak."
p790
tp791
a(g467
I10
S'the reason we go to a "out of the ordinary steak house" is to experience something great and something you can\'t do at home!'
p792
tp793
a(S'-YL5TqbHKvc3HgdHxHRouQ'
p794
I2
S'obviously, i am a fan of this place for its beer selection and lively ambiance especially during the early part of the week.'
p795
tp796
a(g145
I0
S"i've eatenpizza sola before, and the one on the south side seems to have a well rounded staff who know what they are doing."
p797
tp798
a(S'9fbO0-I5w4ku-76XWrVDXg'
p799
I2
S"it's a very expensive place to eat, but hey let's face it, you get what you pay for and here, you're paying for perfection."
p800
tp801
a(g125
I5
S"after, we went up to the voodoo rooftop lounge, was nice that we didn't have to pay a cover because we had just had dinner."
p802
tp803
a(g316
I5
S"the food was great, the bread was my favorite because it was fresh and very soft (fluffy clouds from heaven); i'll be back."
p804
tp805
a(g517
I10
S'you never know from one time to the next if there will be busloads of people or just a couple of people in the whole place.'
p806
tp807
a(g412
I3
S'my only niggle....one of the wait persons was wearing too strong a cologne and the bread could be a lot better very easily.'
p808
tp809
a(g207
I2
S'first off,  i ordered the italian sub that comes with the works (5 different meats) and is supposed to come with provolone.'
p810
tp811
a(g268
I9
S"a light, but complex broth with wide egg noodles, campari tomatoes, spinach & a fennel chicken sausage that's just amazing."
p812
tp813
a(g151
I0
S"i'm not going to lie, my friend and i came here solely for the purpose of spotting some mlb players during spring training."
p814
tp815
a(g640
I3
S'-the moo goo gai pan was also very good, i would definitely order it again as the dish has always been one of my favorites.'
p816
tp817
a(g24
I13
S"so, in short, if you're in the area of this or any of the other lenny's, give'em a shot - you're sure to be in for a treat."
p818
tp819
a(g467
I1
S'this place has a great view from las vegas and ok service, ..... but....\nthe aged 20oz steaks were tough and totally bland!'
p820
tp821
a(g664
I3
S'they had several specials as well as an extensive menus and the waiter said they could make things like fettucine alfredo.'
p822
tp823
a(g64
I7
S"during summer nights, they've been known to show films on makeshift screens, sometimes to the accompaniment of live music."
p824
tp825
a(S'8HRZznFT1tYXXjly45kB2Q'
p826
I5
S'though, i only ordered chicken which is hard to do great since, i knew that it was one of the few entrees i could finish.'
p827
tp828
a(g387
I15
S'here are some item that others have recommended:\nporkbelly in the appetizers\neggplant\nglazed green beans\nkung pao chicken'
p829
tp830
a(g275
I6
S'after a few bites, i decided if i should ask for a refund but i just decided to throw it out and write a bad yelp review.'
p831
tp832
a(g464
I6
S'honestly, one guy was complaining about not having a fork, guys, this is a seafood in a bag, get your hands dirty, place.'
p833
tp834
a(g41
I9
S"for me, ri ra's is a better place to hit off-hours with friends, all of us squished into a booth, talking about ulysses."
p835
tp836
a(g338
I19
S"i do like that tarbell's is a nice change of pace from most of the upscale restaurants in town that specialize in steak."
p837
tp838
a(S'9_X_WlQG-vAjz_L250nN9A'
p839
I3
S'.25 for 8 min and you have to go to the thing remember your plate number and then go back to put the tag in your window.'
p840
tp841
a(S'9-iuO0MsNR_tkbxNQlfzSg'
p842
I1
S"it's pretty cheap for snow crab legs, but you get what you pay for - about an hour of hard work for a few bites of crab."
p843
tp844
a(g83
I6
S"when it comes to irish bars i'm always a sucker for a shot of jameson with a guinness chaser and they didn't disappoint."
p845
tp846
a(g554
I9
S'the waiter rolled his eyes, asked if we wanted an adult beverage (my wife said no, just water to start) and walked away.'
p847
tp848
a(g7
I4
S'sure, "hot n sour" soup is a chinese restaurant staple, but this one took the eye-watering, nose-running spicy-hot cake.'
p849
tp850
a(g261
I6
S'there was literally what looked like a gurney for moving people around and weird "voodoo" like decorations on the walls.'
p851
tp852
a(g134
I2
S"greeted by our hostess we were seated at the window with a great view just at sunset as we we're eating before the show."
p853
tp854
a(g268
I13
S'the atmosphere has a comfortable, non-pretentious, neighborhood vibe that welcomes you whether your in jeans or a dress.'
p855
tp856
a(S'3Ejww5cB0Y_l7ToGicFdZQ'
p857
I6
S'fernando\'s does have some of the best sandwiches downtown--way better than subway "eat bland" sandwiches or jimmy johns!'
p858
tp859
a(g442
I14
S"it's always comfortable and has a seperate restroom out there which is nice since there's not an abundance of restrooms."
p860
tp861
a(g113
I7
S'this excellent buffet served up in their very comfortable, quiet (due to good acoustics) dining room is only $9.50 (srs.'
p862
tp863
a(g44
I5
S"if size matters (i did get the 15 inch one, and had it for lunch and dinner, but wouldn't call it a great value either)."
p864
tp865
a(g21
I6
S"there's a glaze around the steak that we couldn't figure out what it was exactly, but complimented the steak perfectly."
p866
tp867
a(g525
I0
S'a lot of the chinese students here said this was a good place and more authentic than the other chinese places in town.'
p868
tp869
a(g122
I2
S"not many restaurants in the valley or in the united states sell lung dishes (it's one of the un-translated menu items)."
p870
tp871
a(g239
I2
S'the prices of drinks are probably a bit higher here, so you may wish to get a base going before you find yourself here.'
p872
tp873
a(g18
I5
S'salads didnt come with our meals which for $28 should have so 1 star for value in my opinion, but the salad was delish!'
p874
tp875
a(S'5lPNGR-JRlSPKPHdYprglA'
p876
I2
S"they don't have much of variety on other food choices but if you are looking to get good fresh crab this is your place!"
p877
tp878
a(g698
I2
S'the atmosphere was typical for an irish bar, and we found the staff friendly and amazingly quick for as busy as it was.'
p879
tp880
a(g505
I6
S'you can have a half order of anything on the menu, whether you are not very hungry or want to try two different things!'
p881
tp882
a(g651
I8
S'i tend to love hot and sour soup when i have a cold - the peppery vinegary goodness is perfect for curing the sniffles.'
p883
tp884
a(g33
I2
S'it has less of the quirky stylings of the dogs, the tables and chairs all match here, however the food is equally good.'
p885
tp886
a(S'2-SD2lS2u_LXu5wUxma3Lg'
p887
I4
S'pizza was "black" on the entire bottom, burnt and overdone, cheese was like bubblegum, by no means a high quality mozz.'
p888
tp889
a(g467
I3
S'the servers think they are doing you a favor and it seems like they all think what a sucker of a customer is coming in!'
p890
tp891
a(g1
I0
S'it has to be 5 stars this time since the owner bribed us with a complimentary medium dish of celery and pork dumplings.'
p892
tp893
a(g198
I32
S"i'm a wee lass, and paid \\u00a38 for something that left me wanting more...\n\nbecause, to be honest, the food was good."
p894
tp895
a(g412
I1
S'the service was over the top, the atmosphere is light and airy, the menu is veal heavy and i loved my experience here.'
p896
tp897
a(S'44yXnCWfRqxjYTSOz2kQUA'
p898
I4
S"highly recommend for anyone wanting a special night to remember while having the best steaks i've had in vegas period!"
p899
tp900
a(g712
I2
S'sichuan cuisine (this is the right chinese way to spell szechuan) is known for their spiciness, the numbing spiciness.'
p901
tp902
a(g549
I13
S"yes, it's plated nicely and yes the restaurant is pretty, but you're not going to get a unique flavor explosion here."
p903
tp904
a(g461
I8
S"granted we were a bigger group, so maybe he didn't want to disturb us, but really we just wanted to get our desserts."
p905
tp906
a(g308
I2
S"i had the lasagna and the pasta was perfect; i couldn't stop from eating the whole thing and had no room for dessert."
p907
tp908
a(g24
I7
S'just came home with a regular turkey on wheat (and they have excellent wheat bread btw), and it was only $6.94 w/tax.'
p909
tp910
a(g678
I15
S'despite my anger at this, rira still has the best fish and chips in charlotte, and again, a wonderful beer selection.'
p911
tp912
a(g182
I17
S"we mentioned we'd heard of them through yelp, and he laughed and said that he's already got a group of yelp regulars."
p913
tp914
a(g182
I3
S"it's easy to miss the turn, and it's such a narrow driveway that a car cannot get in if another is trying to get out."
p915
tp916
a(g119
I10
S'so go with it firmly in mind that this is a restaurant that does well *for fast food*, not one that aspires to more.'
p917
tp918
a(S'8nJ7FZp4XIHtliiydUtVhg'
p919
I1
S'we loved this place for the authentic indian chinese fusion food, however, that has been lost with the chef leaving.'
p920
tp921
a(g764
I2
S"i've gotten the greco twice, which is white pizza with tomatoes, spinach, feta, and some wonderful herbs and garlic."
p922
tp923
a(g67
I8
S"there aren't many really great places to eat in anthem (yet -- i still have hope) but this place is worth the visit."
p924
tp925
a(g24
I10
S'lenny\'s reg sub is 7.5" and twice the size of subway toppings-wise, and their large is twice that at fifteen inches!'
p926
tp927
a(g24
I1
S"they're such a nice escape from all the other chain sub restaurants, especially subway, which i'm growing to detest."
p928
tp929
a(g842
I4
S'there you get king crab legs, already split for you, and the buffet is so much nicer, cleaner, and fresher feeling.'
p930
tp931
a(g764
I7
S"it's very close to my work, lucky me, so i'm sure i'll be back now and then when i'm too lazy to make my own lunch."
p932
tp933
a(g214
I13
S'i wanted to express my thoughts to the waiter but does that really do anything other than make me look like a jerk?'
p934
tp935
a(g442
I8
S'a little history about that bar that i learned while working there: everything downstairs is imported from ireland.'
p936
tp937
a(g119
I3
S"i don't go there terribly often, but my order is always correct, hot, and looks remarkably like the product photo."
p938
tp939
a(g27
I14
S'everyone agreed that the food was lovely and reasonably priced but the service certainly left a lot to be desired.'
p940
tp941
a(g198
I33
S"and i think if you'd ordered something different that was more filling naturally it would be good value for money."
p942
tp943
a(g134
I18
S'it came with potato and vegetables and they were kind enough to eliminate the potato and add some more vegetables.'
p944
tp945
a(g52
I1
S'i love an open kitchen where patrons can play audience to rising cooking flames and hot dishes ready to be served.'
p946
tp947
a(S'253RGdUq1LDl_c469LjVuw'
p948
I1
S'all of their menu items are delicious, but i highly recommend the gaeng kari and the orange chicken lunch special.'
p949
tp950
a(S'0fpoZOoduzYVq8BLtAhxdg'
p951
I4
S'all tasted great and it was unfair because i got my favorite meat and cheese with perfect other stuff in sandwich.'
p952
tp953
a(g678
I13
S'i seriously doubt i will hear anything from them, but i felt compelled to tell them that this meal was just awful!'
p954
tp955
a(g437
I10
S'one thing to note is that they do not have a soda fountain, so sodas ($1.75, pepsi products) are sold by the can.'
p956
tp957
a(g134
I23
S'even got to hop out on to the patio and it was really nice, small breeze and perfect for some photos of the city.'
p958
tp959
a(g285
I4
S'the sauce was a perfect accompaniment and the cheese on top melded delightfully with the ravioli and cream sauce.'
p960
tp961
a(g24
I5
S'that underwhelming bread loaf very quickly becomes a heaping mass of goodness that will quench most any appetite.'
p962
tp963
a(g678
I11
S'i had to come home to eat something as i was still hungry (not having any meat for this meat-a-tarian is brutal)!'
p964
tp965
a(S'-qPsbOKM477FEtisABFACQ'
p966
I2
S"the crab was acceptable because i'm a sucker for the little guys, but if you're at all picky you should run away."
p967
tp968
a(S'COvx8kjtOt867ppc8KHv6Q'
p969
I4
S'i ordered the crab salad sandwich, i asked what type of crab was used, and told blue crab, which is my favorite.'
p970
tp971
a(S'2JvlqHmcTWK-Bv4A7sXeOA'
p972
I7
S"i don't think we will be visiting again and will probably drive a few miles down to bell road to get great thai."
p973
tp974
a(S'1upkuLMe6u1EriPks_7qjw'
p975
I2
S'well, ri-ra, i used to be a fan of your irish authenticity, in terms of a cozy, low-key beer every now and then.'
p976
tp977
a(g794
I8
S'since i am tough on reviews, i cannot give rira "4 stars" but 3 stars is not fair.....let\'s call it 3.50 stars!!'
p978
tp979
a(g313
I4
S"what i love is that they're helping to populate the s. highland - penn circle intersection along with red room."
p980
tp981
a(g103
I4
S'i loved the "organic field greens with wood oven-roasted apples,...goat cheese and golden beets" for a starter.'
p982
tp983
a(S'7czedYKa1qmOpQV_MLjfHw'
p984
I6
S"also, in our reservation, i left a note to the ma\\u00eetre d' that obviously wasn't passed along to our server."
p985
tp986
a(g15
I7
S"btw in case they actually read this stuff at the rio hotel, this is what wikipedia's  definition of lobster is."
p987
tp988
a(g517
I2
S'sometimes they have large parties that come in by bus unexpectedly so there can be a challenge for the waiters.'
p989
tp990
a(g656
I1
S'i am a great fan of indo-chinese food, and hence we went here often, though this place is about a 40mile drive.'
p991
tp992
a(g299
I15
S'it was grilled to perfection, topped with a local molasses/lime/honey glaze and served on a crispy potato cake.'
p993
tp994
a(S'1LI3l0M1rZcSa2m28nr1WQ'
p995
I0
S"$.49 cent per wing on tuesdays and thursdays - that's what brought me here when i had a huge craving for wings."
p996
tp997
a(g951
I6
S'looking forward to washing my car, pumping some jams in the ride, getting a fresh haircut post-gym/tan/laundry.'
p998
tp999
a(g717
I6
S'for the main course i had the pan-roasted chicken, the skin had the perfect crisp yet the chicken was so moist.'
p1000
tp1001
a(g232
I2
S'i was pleasantly surprised to find it much to the liking of a subway but refined and truly fresher ingredients.'
p1002
tp1003
a(S'CH-FMfA_Xkl1_K1TWl1kGQ'
p1004
I0
S'the large employee guy with blonde hair was belligerent and trying to start fights with several us last night.'
p1005
tp1006
a(S'BUhFbIoZx8cnUOGXBi2jLQ'
p1007
I5
S'ri ra is one of my favorite restaurants in charlotte and if you like pub food this place is the absolute best!'
p1008
tp1009
a(g458
I6
S"because my car broke down i thought okay i'll give them another try, but exactly the same thing happens again."
p1010
tp1011
a(g338
I7
S"it's probably blasphemy to say that these reminded me of steak and shake fries, but they did, only 10x better."
p1012
tp1013
a(g86
I0
S"i came here with some friends last fall for a slice of pizza after visiting the pgh glass center's open house."
p1014
tp1015
a(g198
I23
S"the burger was, i think, around \\u00a37 and add on chips for \\u00a32 and that's \\u00a310 for burger and chips."
p1016
tp1017
a(g198
I4
S"so one sunday i stopped by here for a lazy long sunday linner (lunch and dinner, do you think it'll catch on?)"
p1018
tp1019
a(g7
I1
S"well, not necessarily but you at least have an inkling it's not going to be the typical american chinese menu."
p1020
tp1021
a(g651
I13
S"it had a very light sauce which was not greasy at all - something that i've found is a rarity in chinese food."
p1022
tp1023
a(S'5A2DL0laWzTRL14icaS9nA'
p1024
I1
S'this place is terribly understaffed, on a friday night there should not be only 2 bartenders for a packed bar.'
p1025
tp1026
a(g134
I1
S"i've been here once before but appreciated it much more this time, the ride up in the open elevator was great."
p1027
tp1028
a(g442
I3
S'i always had a blast working on the weekends cuz the crowd was fun, the music good, and the tips = phenomenal!'
p1029
tp1030
a(g442
I0
S"i used to work at ri ra's and most of the time that generates a horrible review - however, i loved this place."
p1031
tp1032
a(g128
I4
S'service was provided by tony who was excellent - attentive, knowledgable, and helpful in offering suggestions.'
p1033
tp1034
a(g30
I2
S'our server, nathan, knew just when to stop by, was able to answer all our questions, and was not pushy at all.'
p1035
tp1036
a(g461
I4
S"the beets were deliciously sweet but a little on the smaller side so it'd be perfect before your main course."
p1037
tp1038
a(g951
I0
S'not cool enough to hang out at the pub, but grabbed a sandwich from the shop extension they got during lunch.'
p1039
tp1040
a(g338
I9
S'we also shared the soup of the day, tomato bisque, and the bacon candy salad, both of which were delightful.'
p1041
tp1042
a(S'ACJQQHZ-JAuhsoV3lbLxCg'
p1043
I2
S'the salad looks like it could be good, but there is no way for me to know because they were out of utensils.'
p1044
tp1045
a(g759
I0
S'anybody who loves their thai food is probably a high-fructose suburbanite who has never been outside anthem.'
p1046
tp1047
a(g367
I1
S'egg and ham, apple and maple syrup, potato and something... everything on the menu is simple, yet delicious.'
p1048
tp1049
a(g323
I1
S'you are reading this and wanting to ridicule me for giving a high rating to a big box chain fast food joint.'
p1050
tp1051
a(g651
I6
S'my dining companion, paul d. ordered based upon that list, and i went with a recommendation from our server.'
p1052
tp1053
a(g268
I14
S'hubs loves marks famous spaghetti & meatballs and the grilled ny strip, i mean really, how can you go wrong!'
p1054
tp1055
a(g299
I17
S'the restaurant week menu that everyone else ordered from had only one starter option: the pulled mozzarella.'
p1056
tp1057
a(g364
I0
S'first comment is we went in for a late dinner stayed beyond their closing time never a push a rush to leave.'
p1058
tp1059
a(g116
I3
S'we also had some type of fried bean, calamari, and a sampling of their salads and everything was to die for.'
p1060
tp1061
a(g131
I13
S'for dessert i had the mud pie semi fredo which apparently means half frozen and was as awesome as it sounds.'
p1062
tp1063
a(g182
I6
S'the tables and decor felt classy, but the bright fluorescent lighting contrasted for a more industrial feel.'
p1064
tp1065
a(g73
I4
S'rigatoni al amitriciana always appeals to my half italian taste buds, as does the amazing seafood linguine.'
p1066
tp1067
a(g461
I7
S'taking off a star because our waiter disappeared for a good long while after dropping off the dessert menu.'
p1068
tp1069
a(g494
I8
S'we had a genuine irish waiter who was in training and did a phenomenal job (and i am very big on service!!)'
p1070
tp1071
a(g64
I2
S"if it's warm out, rest assured that there is no better place to grab a bite when you're out on a sunny day."
p1072
tp1073
a(g145
I14
S"again, the pizza is always good and good quality...i guess i just don't understand who hires these people."
p1074
tp1075
a(g122
I8
S'kind of reminded me of going to a chinese seven course dinner where each course is brought out separately.'
p1076
tp1077
a(g759
I7
S'there is no ambiance to speak of (its in a strip mall, and the decor is your usual average suburban diner.'
p1078
tp1079
a(g361
I0
S'this is my secret hideout to sit in a dark booth, grab an egg salad sandwich and read a book during lunch.'
p1080
tp1081
a(S'6Yo038ipIHdxQQv9QXW9WQ'
p1082
I9
S"it's a northern chinese restaurant, so the few cantonese dishes (like walnut shrimp) are a disappointment."
p1083
tp1084
a(g134
I20
S'we received our discount using total rewards which was outstanding, and my great sister picked up the tab!'
p1085
tp1086
a(g134
I12
S'there were about 10 appetizers on the menu and it was a tough call which to order, they all sounded great.'
p1087
tp1088
a(g217
I9
S'they need to understand the meaning of marketprice if they are going to list it as the price for crawfish.'
p1089
tp1090
a(g217
I1
S'before i went here for dinner, i had my husband call to see if they were serving frozen or fresh crawfish.'
p1091
tp1092
a(g969
I5
S'i ordered sweet potato fries which were an additional charge instead of regular fries which came with it.'
p1093
tp1094
a(g41
I0
S'with dave all the way (well, except for the fish part) on this dark, classy, leather-encrusted irish pub.'
p1095
tp1096
a(g145
I10
S'we arrive 30 minutes after calling and the pizza had just come out and we were only waiting on the wings.'
p1097
tp1098
a(g437
I2
S'we got a few different dishes, and left very full and satisfied, with lots of leftovers for the next day!'
p1099
tp1100
a(g189
I12
S'the sausage looked like a breakfast pattie that had been browned on one side and then broken into pieces.'
p1101
tp1102
a(S'5swbGEiErjYktFlufOVaDA'
p1103
I7
S'they get it together then either raise the price to rediculous or charge full price for kids, common rrb.'
p1104
tp1105
a(g461
I3
S'i personally had a bit of the beet salad and for my main course, i had the pony salad with smoked salmon.'
p1106
tp1107
a(g7
I20
S'p.s.2:  a shamefully belated but heaping helping of "thank you" to norm r. for the introduction and meal!'
p1108
tp1109
a(g261
I1
S'the rio is not exactly known for their food and this is no exception, but will set you back at least $50.'
p1110
tp1111
a(g857
I1
S'after having to eat soup yesterday because of an upset tummy, i wanted to have a real sammitch for lunch!'
p1112
tp1113
a(g67
I3
S"this was our first time here but will hardly be our last... i've added it to our short-list of favorites."
p1114
tp1115
a(g445
I3
S'definitely try the spaghetti & meatballs as well as the mac n cheese, and even the pizzas are to die for.'
p1116
tp1117
a(g333
I3
S'although the restaurant was pretty empty, we were seated in the center of the room close to other diners.'
p1118
tp1119
a(g613
I12
S'i asked for a side of the curry sauce and i do not kid or exaggerate to say it is out of this world good.'
p1120
tp1121
a(g21
I5
S'we shared a steak medium rare which came out split for us without even having to request it to be split.'
p1122
tp1123
a(g398
I9
S'put it this way: there were, not one, but two sauces that my mom and i agreed we would like to bathe in.'
p1124
tp1125
a(S'9PjLrVJGDWmTr_dvRqdUmQ'
p1126
I3
S'peter, the chef always makes a point of coming out & saying hi to us & they always make us feel at home.'
p1127
tp1128
a(S'8SX8bCcwmUf3-qqKC1lqBA'
p1129
I1
S'other items, veggies, great salad bar, soups and a variety of desserts and ice cream soft serve machine.'
p1130
tp1131
a(g361
I5
S"oh yeah, the air conditioning is out of control if you're looking for a place to cool off in the summer."
p1132
tp1133
a(g387
I5
S'i was very surprised with the location of it and actually drove past the entrance but i finally made it.'
p1134
tp1135
a(g347
I0
S'we have driven past railroad pass so many times and never suspected such a jewel of a restaurant inside.'
p1136
tp1137
a(g15
I15
S'i will not be eating there, i will not be staying there and i most certainly will not be gambling there.'
p1138
tp1139
a(g620
I9
S'i was torn as to what to order but i settled on the pan-roasted chicken and i was far from disappointed.'
p1140
tp1141
a(g207
I7
S"boar's head doesn't come in close to thumann's but i'll take boar's head when nothing else is available."
p1142
tp1143
a(S'-dzOO077c8oNaIMq1ap1kg'
p1144
I1
S'however, this is hands down the best thai food within 25 or 30 miles, and one of the eateries in anthem.'
p1145
tp1146
a(g182
I15
S'the service was a little slow, but not enough to make us feel neglected; just to dine at a relaxed pace.'
p1147
tp1148
a(S'C8knIxOY3BFOIoRnKuHW6w'
p1149
I3
S'i always get the club with oil and vinegar which comes with roast beef , turkey, and bacon lettuce tom.'
p1150
tp1151
a(g664
I9
S'if your are looking for some place to eat off the strip and the pasta shop is still closed try sergios.'
p1152
tp1153
a(g70
I24
S'every time ive been there i see many chinese customers and they always seem  to be enjoying their food.'
p1154
tp1155
a(g27
I11
S'she seemed to have a real chip on her shoulder as her tone was most unpleasant throughout the evening .'
p1156
tp1157
a(g198
I42
S'the pizzas are also on the average-portion size (again a good thing) which i noticed from other diners.'
p1158
tp1159
a(g198
I6
S'ironically i went for one of the less-american themed things on the menu but my partner had the burger.'
p1160
tp1161
a(g347
I2
S'the rib eye steak was cooked perfectly and my girlfriend reported the seafood platter was unbelievable.'
p1162
tp1163
a(g1082
I6
S"if you're in luck they'll have super spicy wontons, chive pancakes, garlic marinated cucumber to start."
p1164
tp1165
a(S'2N53CeBKGkCHyG0bopY4cw'
p1166
I4
S'our waiter reyes was on top of everything and suggested the canolis for desert, what an excellent pick.'
p1167
tp1168
a(g30
I5
S'after ordering wine, nathan offered to pick our starters for us since we were unfamiliar with the menu.'
p1169
tp1170
a(S'0s4cFr02v1OuIapNPvWmRg'
p1171
I1
S'the food is consistently good, the service is always friendly and fast , and the prices are reasonable.'
p1172
tp1173
a(S'-vhkE3iRHP4PuVxx3D-o9g'
p1174
I9
S"although it's a bit pricy, it's inline with other restaurants that don't have a view of this magnitude."
p1175
tp1176
a(g779
I1
S'the food is wonderful, the service is top drawer, and the atmosphere hits the exact right tone of hip.'
p1177
tp1178
a(g338
I15
S"it isn't very often that we go all out and indulge ourselves and tarbell's was a good choice to do so."
p1179
tp1180
a(S'AFBkfPNtOjcJeSX09SHeow'
p1181
I0
S'just had an angus beef blue cheese burger with onions mushrooms and cheese that was out of this world.'
p1182
tp1183
a(g919
I0
S'chef has changed and so has the serving staff, and the quality of the dishes has drastically declined.'
p1184
tp1185
a(g1103
I3
S'but for a 2 year old - serously - there is no way she would eat even $7.25 (half price) worth of food.'
p1186
tp1187
a(g520
I4
S"service was exceptional... i've never had a restaurant call me the next day asking how everything was."
p1188
tp1189
a(S'12QWWU4c75qqjarb7htmVA'
p1190
I0
S'amazing steakhouse at the top of the rio where there is a nightclub with a gorgeous view of the strip.'
p1191
tp1192
a(g1043
I6
S'the guy at the register made no apology or attempt to find some way to provide something to eat with.'
p1193
tp1194
a(g722
I1
S'our food was very good...the filet melted as soon as it hit our mouths and the seared scallops...wow.'
p1195
tp1196
a(g239
I6
S"and it may have just been the irish twists handling my perceptions, but i'm pretty sure she liked me."
p1197
tp1198
a(g764
I0
S'pizza sola offers tasty and innovative pizza by the slice, in a clean and modern looking environment.'
p1199
tp1200
a(g461
I11
S"i wouldn't say it'd be date night-worthy (unless she's into sports), but great for a nice dinner out."
p1201
tp1202
a(S'4knHOJAXAJZTZsh-HkMt1Q'
p1203
I0
S'my husband and i tried this place the other night while we were shopping at the anthem outlet stores.'
p1204
tp1205
a(g299
I14
S'the salmon was a huge hit -- i think everyone at the table had order envy over it -- but i did share!'
p1206
tp1207
a(g608
I9
S"i'll take a good cold cut sandwich any day when i can watch my meat get sliced and make a new friend."
p1208
tp1209
a(g712
I3
S'this is the only chinese restaurant i have been to in phoenix that offers the real numbing spiciness.'
p1210
tp1211
a(g1190
I1
S'get the bone in rib eye (my favorite cut of steak and best thing there) and a side of mac and cheese.'
p1212
tp1213
a(g47
I4
S'we ordered wine ( which was divine) the mac and cheese and salmon dish to share, and the kale salad.'
p1214
tp1215
a(S'9bMVEoxcZul2ksJSFocPXQ'
p1216
I3
S'the server clained it serving size is for 1-2.  she was absolutely wrong...was enough for 4-5 folks.'
p1217
tp1218
a(g27
I4
S"our group consisted of twelve young professionals and many of us, myself included, weren't drinking."
p1219
tp1220
a(S'5zP-msrvkW7IUOBUzwdMKA'
p1221
I0
S'lovely heirloom tomato salad, but i would have been very happy to share it, because it was so large.'
p1222
tp1223
a(g100
I0
S'sad experience, way under staffed, waiter was pleasant but hurried and cared less what you ordering.'
p1224
tp1225
a(g948
I2
S"i've never actually had thai food anywhere else, but i still feel confident saying they're the best!"
p1226
tp1227
a(g44
I4
S'i wanted to like it but the bread was very similar to subway, very light in flavor and not too good.'
p1228
tp1229
a(g717
I4
S'the caesar salad was delicious but typical of what you would expect, which is exactly what i wanted.'
p1230
tp1231
a(S'-W0pEnhxUUZai1ra5NS5Vg'
p1232
I8
S"i also didn't like that you had to use cash instead of paying with any method of payment you wanted."
p1233
tp1234
a(g549
I3
S"the service was solid, view was beautiful, and while the food wasn't memorable, it was really good."
p1235
tp1236
a(S'AgKf4xwR5CeMa5SzTSqmng'
p1237
I0
S'food--- great    booze----great   service-- great  if you do not like this place , see a therapist.'
p1238
tp1239
a(g338
I1
S"for this visit i booked a reservation at tarbell's and was excited to head there for a nice dinner."
p1240
tp1241
a(g165
I4
S"you go to miu's if you want bold in your face flavors with authentic spices and organic vegetables."
p1242
tp1243
a(g398
I4
S'she was friendly, very knowledgeable about the menu (including the cocktails -- get the violet one!'
p1244
tp1245
a(g759
I11
S'we both agreed that we needed strong coffee to eradicate the syrupy sweet aftertaste in our mouths.'
p1246
tp1247
a(g198
I3
S'then seeing their tweets about a pb&j cheesecake (peanut butter and jelly cheesecake) even more so.'
p1248
tp1249
a(g148
I7
S'we did some splitting and switching on our entrees, and honestly...they were good -- totally solid.'
p1250
tp1251
a(g347
I1
S"thanks to railroad pass' player's card, we tried the steakhouse at the pass - which was incredible."
p1252
tp1253
a(g461
I9
S'the ambiance was great, it was a quiet night and the music was pleasant - not too loud but audible.'
p1254
tp1255
a(S'4miq2kvSgVZkNpIcxgg5bA'
p1256
I2
S'the pink pony right in the heart of old town scottsdale must be on the list of great places to eat.'
p1257
tp1258
a(g52
I5
S"mark tarbell, i'm hooked and i'll be back for more next time i'm visiting phoenix's camelback area."
p1259
tp1260
a(g308
I3
S'our waiter, john, was super nice, helpful with choices and paid just the right amount of attention.'
p1261
tp1262
a(g308
I1
S"you don't find this dish very often in italian restaurants because it's so labor intensive to make."
p1263
tp1264
a(S'-yqdZPKGfe5KZQT-plpC-Q'
p1265
I2
S'they have a patio that you can walk out on and have a drink, take pictures, check out the view etc.'
p1266
tp1267
a(g41
I3
S'the game seemed to have them a bit frazzled, but you could also tell they were trying pretty hard.'
p1268
tp1269
a(g41
I2
S'and yup, something about the atmosphere here (and in most other pubs) puts me immediately at ease.'
p1270
tp1271
a(S'C7MpKQNq95KMaFeFMXHXjA'
p1272
I3
S'this time we were required to show our coupon to hostess and server before being seated or served.'
p1273
tp1274
a(g525
I1
S'i was recommended to try the stir-fried fish with chili and and the steamed fish with chili sauce.'
p1275
tp1276
a(g549
I19
S'it was mediocre tomatoes, bitter lettuce, crumbled soggy burrata, and a light drizzle of balsamic.'
p1277
tp1278
a(g1043
I7
S"now sitting at my desk with a salad that i can't eat, gotta give it one star for the poor service."
p1279
tp1280
a(g1126
I4
S'this is worth the drive if you live in phoenix & are looking around on yelp for a good thai place.'
p1281
tp1282
a(g437
I9
S'one of the people in charge stopped by our table and chatted with us for a little, which was nice.'
p1283
tp1284
a(S'8xS9xugGApxWJYnNwaDMXw'
p1285
I0
S"when i walked into this place i felt like i was walking into my dad's favorite bar in my hometown."
p1286
tp1287
a(g358
I12
S"i am sure they aren't trying to offend their clientele but if you don't mind try and check it out."
p1288
tp1289
a(g717
I13
S"tarbell's is a great arizona restaurant that never changes which is why we love coming back there."
p1290
tp1291
a(g1174
I4
S'our waiter was excellent, and they are very personable, with great stories to tell about the city.'
p1292
tp1293
a(g182
I8
S'there were few of the usual dishes i look for, so i was forced to step outside of my comfort zone.'
p1294
tp1295
a(g27
I13
S'we felt like criminals when our payment was \\u00a38 short even though it was an innocent mistake.'
p1296
tp1297
a(g505
I4
S'the owner is always in talking with customers, the bartenders are awesome, service is incredible.'
p1298
tp1299
a(g442
I5
S"allow time for them to fight the crowd to and from the bar and you'll have your drink in no time."
p1300
tp1301
a(g285
I1
S'we both visited during restaurant week and had the salad with apples which was a wonderful start.'
p1302
tp1303
a(g30
I11
S"a genuine thank you to tarbell's, and nathan, for making this dinner such a fantastic experience."
p1304
tp1305
a(g613
I0
S"during my one visit (before a big rock concert), ri ra'swas crowded and loud while we were there."
p1306
tp1307
a(S'-Kg-uDqum7w8vwLtaYKdEg'
p1308
I1
S'had lunch with some friends and family recently and i would really recommend the chicken pot pie.'
p1309
tp1310
a(g338
I4
S'while perusing the menu we each ordered a gin martini; with a twist for me and dirty for my dad.'
p1311
tp1312
a(g239
I4
S'i used an iphone app with a drink database to order a random obscure cocktail and "irish twist".'
p1313
tp1314
a(g1082
I4
S'you came for the dirt cheap tsing tao beer (thank goodness they have it to help quell the heat).'
p1315
tp1316
a(g517
I9
S'every time we eat here we say why is wes working there as he should be at a busy, upscale place.'
p1317
tp1318
a(g207
I12
S"the staff was so personable i don't regret leaving them a tip even though they forgot my cheese."
p1319
tp1320
a(S'0VAhNdU2VBOD7jVNhSeQ-g'
p1321
I2
S'also, dirty cellphones are on the food prep surface, and they scoop their ice without a scooper.'
p1322
tp1323
a(g182
I0
S'after all the hubub about this new chinese restaurant, my boyfriend and i knew we had to try it!'
p1324
tp1325
a(g220
I8
S'combine that with the quality of the fish, and the yummy tartar sauce, and it was a great meal!'
p1326
tp1327
a(g839
I0
S"i'm so glad they put a popeye's back in pittsburgh but way did they have to put it in oakland?."
p1328
tp1329
a(g86
I7
S'my non-gf friend agreed with me about the quality, even though her slice was fresher than mine.'
p1330
tp1331
a(g148
I1
S'i had heard of this place as a foodie-favorite and i love supporting a local celeb-worthy chef.'
p1332
tp1333
a(g972
I5
S"they didn't even have thai basil chicken which i thought was a staple in every thai restaurant."
p1334
tp1335
a(g678
I16
S'just know that this one star rating only applies to the beef short ribs dish, and nothing else.'
p1336
tp1337
a(g313
I2
S'the decor is very nice, with lots of stainless steel tables and a nice seating area to eat-in.'
p1338
tp1339
a(g1043
I4
S"and the worst part is that you don't know it until you already through the line and have paid."
p1340
tp1341
a(S'9k-goJAz5pgOOTLsjmE_Qw'
p1342
I1
S'me and my friend went to the place for lunch on week day and it took forever to get our order.'
p1343
tp1344
a(g754
I2
S'only tried the pulled pork, which was good, but others said the chicken sandwich disappointed.'
p1345
tp1346
a(g554
I1
S'we have been here quite often, as we feel that this is some of the best italian food in vegas.'
p1347
tp1348
a(g27
I15
S'it was very unfortunate that one very rude waitress ruined the dining experience for everyone.'
p1349
tp1350
a(g198
I0
S"when the moon hits your eye like a big american french fry, that's amoorreeeeee....\n\neh, what?"
p1351
tp1352
a(g106
I2
S"the subs were still good, but it was disappointing and i sent my concern off to jersey mike's."
p1353
tp1354
a(g1203
I1
S'we were expecting it to be a good place, especially since we read all the reviews on the yelp.'
p1355
tp1356
a(g656
I9
S'we also ordered veg noodles, and they gave us a bowl of noodles without any vegetables at all.'
p1357
tp1358
a(g442
I9
S'the owners have a partner over there who does nothing but look for antique stuff for ambiance.'
p1359
tp1360
a(g442
I2
S'the selection of import beer was good and the bartenders could make up some crazy concoctions.'
p1361
tp1362
a(g975
I3
S'but seems you have taken a turn away from legitimacy, and towards masses of drunken revelrers.'
p1363
tp1364
a(g232
I4
S'i got there around 11:30am and any later i would have been in line with about 20 other people.'
p1365
tp1366
a(g1232
I0
S'we decided to try this place because of the amount of good stars and reviews......big mistake!'
p1367
tp1368
a(g549
I7
S'everything tasted good, but nothing rocked my socks so much i would have to come back for it.'
p1369
tp1370
a(g70
I8
S'portion was ok actually, truth be told a lot better portion wise then some other restaurants.'
p1371
tp1372
a(g1285
I4
S'it tasted very fresh and well cooked, but pub food is rarely worth getting too excited about.'
p1373
tp1374
a(g148
I9
S"solid wasn't what i was expecting...i was expecting impressive, surprising, can't-get-enough."
p1375
tp1376
a(S'60FY-3G-o_Hsa2pY3yKQCQ'
p1377
I2
S"the food is amazing the service is amazing and the overall customer service can't be touched."
p1378
tp1379
a(g620
I0
S"my mother, sister and i had dinner here recently while out celebrating mother's day together."
p1380
tp1381
a(S'5oGhdsuHuiQXamWdhpiroQ'
p1382
I0
S'pizza express do the best dough balls and garlic bread ever, they get 4 stars for that alone!'
p1383
tp1384
a(g651
I10
S'i tend to eat vegetarian, so i asked our server what he recommended from my possible choices.'
p1385
tp1386
a(g520
I9
S'made me feel like i was in a great restaurant in nyc, except that the service was way better.'
p1387
tp1388
a(g520
I5
S"someone called me the next day and actually remembered we were celebrating my mom's birthday."
p1389
tp1390
a(S'-zuInteKzMGePM9eoWUfLg'
p1391
I2
S'yes i will admit i have a fear with heights but after alot of drinks i made it up to the top.'
p1392
tp1393
a(g664
I0
S'we wanted to go to the pasta shop, but when we got there we found it closed -maybe for good.'
p1394
tp1395
a(g76
I1
S'the dan dan noodles have a very well rounded flavor, they are more than just hot with spice.'
p1396
tp1397
a(g70
I16
S'he said it was a little too oily and too salty, other than that he said the flavor was fine.'
p1398
tp1399
a(g437
I6
S'our total for all that food with 2 sodas and hot tea (including tax) was about $55, not bad!'
p1400
tp1401
a(g764
I8
S"it's very popular with my coworkers, some of whom have tried almost every slice on the menu!"
p1402
tp1403
a(g207
I10
S'the staff was very friendly, the restaurant was clean, there were blown up photos of the pt.'
p1404
tp1405
a(g207
I1
S"i'm from jersey, everybody in my family raves about jersey mikes and they are all in jersey."
p1406
tp1407
a(g106
I9
S'yes their prices are a bit higher then a place like subway, but you do get what you pay for!'
p1408
tp1409
a(g91
I27
S"if you're an older, much more boring person in the world, this place is right up your alley."
p1410
tp1411
a(g1203
I7
S'the panag curry was overly flavored with mint and lacked little or no taste of coconut milk.'
p1412
tp1413
a(g100
I2
S'they offered a replacement but given the show start time and slow service there was no time.'
p1414
tp1415
a(g282
I3
S'and the best part is you are encouraged to go hang out, outside while waiting for your meal.'
p1416
tp1417
a(g656
I2
S'initially the food was great, the service was ok. gradually the service went from ok to bad.'
p1418
tp1419
a(g30
I0
S"wow, tarbell's is unforgettable and will definitely be a go-to for special occasion dinners."
p1420
tp1421
a(S'-ajXcCWLMa-CLQ0rOOtNYw'
p1422
I1
S'the pepper-crusted steak was better than steaks i have had at many steakhouse in the valley.'
p1423
tp1424
a(g664
I5
S'the meals came with salad or soup although you had to pay extra to upgrade to caesar salad.'
p1425
tp1426
a(g1043
I1
S'the sandwich/ salad makers were polite and fast, and the price was reasonable for downtown.'
p1427
tp1428
a(g145
I1
S'east end on the other hand, are a little clueless on how this "ordering pizza" thing works.'
p1429
tp1430
a(g70
I4
S"she informed us that if we didn't want msg in our food that they could cook it without msg."
p1431
tp1432
a(g586
I5
S'i usually only get chicken wings that are deep fried, giving them that familiar crispiness.'
p1433
tp1434
a(g1103
I1
S'my complaint is that they want you to pay full price for a two year old and an 11 year old.'
p1435
tp1436
a(g455
I5
S'the food was amazingly good, especially the calamari and the vodka penne were my favorites.'
p1437
tp1438
a(g299
I4
S"all of these are things that i've heard about tarbell's time and time again over the years."
p1439
tp1440
a(g640
I6
S'we both left full and with enough leftovers for another meal (which we ate the next night).'
p1441
tp1442
a(g975
I0
S"civilized, respectable locations don't charge separate covers for the gander and the goose."
p1443
tp1444
a(g969
I2
S'always nervous to try a place when they are not busy during lunch, especially on a friday.'
p1445
tp1446
a(g41
I1
S"i hadn't been here in years and was kind of amazed how much it resembled pre-fire ri ra's."
p1447
tp1448
a(g47
I0
S'let me just say it really takes an experience to move me to write a review for a business.'
p1449
tp1450
a(g76
I0
S"i've had 3 dishes in the two trips, so far, but each of them rank very highly on my lists."
p1451
tp1452
a(g398
I11
S'as other reviewers have mentioned, the fried capers on the tartare are extra-special good.'
p1453
tp1454
a(g826
I1
S'i was meeting our wineries distrubutors sales reps and this is the restaurant they choose.'
p1455
tp1456
a(g984
I5
S'the chocolate mousse was outstanding but the ice cream in the profiteroles was gelatinous.'
p1457
tp1458
a(g91
I8
S'i actually had to initiate spoken language by glibly asking "this is a restaurant, right?"'
p1459
tp1460
a(g268
I12
S"i've also had the salmon & sea bass (a special that night), both worthy of a repeat visit!"
p1461
tp1462
a(g707
I4
S'the stools we sat in were not the most comfortable, but nothing to really complain about.'
p1463
tp1464
a(S'8cy7kr92chZSOUDoyt3y3w'
p1465
I3
S'asked for extra sauce and they charged $2.75 without telling me and gave me extra cheese!'
p1466
tp1467
a(g984
I3
S"mom's seafood chowder sounded like it would be full of mussels and there were hardly any."
p1468
tp1469
a(g275
I4
S"the cheapest crepe is $7 for the plain and if you want veggies or anything else it's $13."
p1470
tp1471
a(g91
I15
S'the carpaccio was the most boring carpaccio i have ever had -- not bad, not good: boring.'
p1472
tp1473
a(g640
I9
S'overall:\ni would definitely return, the food was very good, though i wish they delivered!'
p1474
tp1475
a(g887
I3
S'shrimp in the cocktail were at least 2 days old, not fresh steamed at all, like "rubber".'
p1476
tp1477
a(g1265
I5
S'i had the french onion soup, filet, and we split two sides mac n cheese and the broccoli.'
p1478
tp1479
a(S'-XbyzlFdMh5e0ndOGwsmpA'
p1480
I2
S"this is not a stuffy stuck up location that treats you poorly if you don't order alcohol."
p1481
tp1482
a(g165
I2
S'do not come here if you\'re looking for hokey and badly flavored "beef and broccoli"  bs.'
p1483
tp1484
a(g1285
I1
S'it was very casual and laid back, with the big wooden chairs and comfortable atmosphere.'
p1485
tp1486
a(g358
I9
S'i have never heard anything so vulgar in my life, and they were country & western songs.'
p1487
tp1488
a(g633
I3
S'the fried pickle chips she recommended was one of the tastiest things i have ever eaten.'
p1489
tp1490
a(g134
I22
S'all in all, service was great, food just wonderful and view from the top was stellar!!!!'
p1491
tp1492
a(g608
I6
S'(not sitting between paper, pre-sliced, a la other sandwich shops) bread is baked fresh.'
p1493
tp1494
a(g887
I1
S'we recently moved within walking distance to the pony and could not wait to give it try.'
p1495
tp1496
a(g24
I11
S'they also have a good selection of salads, as well as hot subs like philly cheesesteaks.'
p1497
tp1498
a(g30
I3
S'the dinner was perfectly timed out, and he never made me feel rushed to finish a course.'
p1499
tp1500
a(g565
I5
S'i had a much better steak dinner at "mon ami gabi" for far less money than i spent here.'
p1501
tp1502
a(g510
I2
S'they have a great beer selection, plenty of tvs to watch whatever event(s) are going on.'
p1503
tp1504
a(g232
I1
S'i was looking for a new place to put into rotation and dropped in here a few weeks back.'
p1505
tp1506
a(g1043
I0
S'i just went through the line at the sandwich shop in the courtyard of the hearst tower.'
p1507
tp1508
a(g86
I6
S'also, the toppings were prone to sliding off, which always annoys me when eating pizza.'
p1509
tp1510
a(S'8V7sk8UNeQp0F3EJVLhJGA'
p1511
I12
S'have told my husband, so...we will stop by one more time before heading back to the oc.'
p1512
tp1513
a(g759
I5
S'both meals were given the official suburban american sugar-salt-fat-overload-treatment.'
p1514
tp1515
a(g826
I4
S'i though this was a good restaurant, and i liked the over the top whisky bread pudding.'
p1516
tp1517
a(g387
I13
S'i would like to go back and try more things so i can experience more authentic chinese.'
p1518
tp1519
a(g1103
I2
S'i could see a discount for the 11 year old, may even of been willing to pay full price.'
p1520
tp1521
a(g91
I28
S'with all the bentleys and porsches parked out front (i saw some fogey driving a viper!)'
p1522
tp1523
a(g134
I11
S'it was very cheesy, lots of onions and was made with a nice beef broth, also delicious.'
p1524
tp1525
a(g640
I2
S'the whole reason i came to south china was to satisfy my immense craving for dumplings.'
p1526
tp1527
a(g113
I0
S"it's been just a week short of two years since i was up here to enjoy this nice buffet."
p1528
tp1529
a(g1082
I2
S'you will find surly waitresses who look at you like they really hate you as you order.'
p1530
tp1531
a(g517
I8
S'i must say i miss the other two waiters as you really got the feel of vegas with them!'
p1532
tp1533
a(S'65bkEkGp8DWCXsRMwRF7BA'
p1534
I2
S'all small plates were half off for happy hour making this place a steal for good food.'
p1535
tp1536
a(g461
I10
S'the layout was gorgeous and the home plate at the entrance was definitely very unique.'
p1537
tp1538
a(g464
I5
S'the crab was a little pricey but they were huge crab legs, not your small little legs.'
p1539
tp1540
a(g494
I7
S'i would have actually preferred these over the luke warm fries that came with my meal.'
p1541
tp1542
a(g299
I13
S'i enjoyed the caesar salad despite the lack of anchovies (i happen to love anchovies).'
p1543
tp1544
a(g285
I8
S'the ice cream on top helped cut through the richness a bit - finishing it felt guilty.'
p1545
tp1546
a(g52
I3
S'and for my main, the vegetarian dish "made with love" as the menu stated - was indeed.'
p1547
tp1548
a(g659
I5
S"i should have known better than to eat here when i saw they don't accept credit cards."
p1549
tp1550
a(g38
I5
S'all of the staff members we encountered during our dinner were friendly and attentive.'
p1551
tp1552
a(S'0S23kqkADnt0WuzgxHlqfw'
p1553
I0
S'i have lived in anthem for the past 6 years and have never tried this place until now.'
p1554
tp1555
a(S'-Oazg8eredExg722SQuQqg'
p1556
I1
S'i have lived around that restaurant for years and years and finally decided to try it.'
p1557
tp1558
a(g220
I20
S'one of the only places here in charlotte that actually know how to make crispy bacon!'
p1559
tp1560
a(g546
I4
S'it has the ambience (or lack thereof) that generally means delicious home style food.'
p1561
tp1562
a(S'9RaRzZt4aomgnrD1XxZ60g'
p1563
I3
S'not an extensive menu and maybe a little overpriced, but all in all i would go again.'
p1564
tp1565
a(g1563
I0
S'great service, good food, nice views - especially from the patio/deck, strong drinks.'
p1566
tp1567
a(g1126
I0
S'being from sf, i have eaten at many thai places & dara thai is at the top of my list!'
p1568
tp1569
a(g437
I0
S'excellent sichuan and cantonese dishes, friendly efficient service, and great prices.'
p1570
tp1571
a(g189
I0
S'as a foodie, traveling through phoenix, i was excited to be able to dine at tarbells.'
p1572
tp1573
a(g198
I43
S"but if you're looking for an all-out epic feast, you might be left a little hungry..."
p1574
tp1575
a(g198
I2
S'after i saw jurgen d\'s review proclaiming that it had gone "all yanky" i was curious!'
p1576
tp1577
a(S'6H2j1Pk6PEc2tdN18QK71Q'
p1578
I1
S'they told me it would be ready in 20 minutes so i made sure to be there at that time.'
p1579
tp1580
a(g214
I1
S"only reason i didn't give voodoo steakhouse zero stars is because it has a nice view."
p1581
tp1582
a(g7
I17
S'be warned of easy-to-miss narrow driveway between buildings off north side of apache.'
p1583
tp1584
a(g651
I7
S'now for the good stuff:\n\ni had hot and sour soup, while paul had the egg flower soup.'
p1585
tp1586
a(g1024
I0
S'(only commenting on ri ra as a bar as i have not tried the food) get some more staff!'
p1587
tp1588
a(g106
I3
S'within a couple of hours the manager of the location i had this experience called me.'
p1589
tp1590
a(g370
I0
S'three trips there so far as a family, my daughter there an additional time on a date.'
p1591
tp1592
a(g171
I9
S'otherwise, the pasta dishes are especially fantastic and worth a small inconvenience.'
p1593
tp1594
a(g330
I0
S'was visiting from chicago and this place rivals any of the best irish pubs out there.'
p1595
tp1596
a(g24
I9
S'basically the same thing you\'d pay at subway for miniscule toppings on a 6" sandwich.'
p1597
tp1598
a(g678
I9
S'as a "foodie," i am shocked that their chef would actually serve something like that.'
p1599
tp1600
a(g1480
I1
S'i would recommend this steakhouse to anyone wanting fine dining at reasonable prices.'
p1601
tp1602
a(g220
I5
S'well, suffice it to say, these were the best fish and chips i had here in charlotte!'
p1603
tp1604
a(g70
I10
S'and my mates shrimp stir fried with green onions,dried chilli peppers and snow peas.'
p1605
tp1606
a(g398
I2
S'i think that first and foremost i have to rave about the service, which was stellar.'
p1607
tp1608
a(g1563
I4
S"if you show up early, do the zip line with the local discount, it's a fun 2 minutes."
p1609
tp1610
a(g1126
I1
S"i have liked everything i've tried but my favorites are the tom ka gai & gaeng kari."
p1611
tp1612
a(g737
I1
S'there are a lot of options in this area for lunch and these guys nail it every time.'
p1613
tp1614
a(g103
I10
S'sides included "maple glazed carrots & cranberries" and "mark\'s mom\'s mac & cheese".'
p1615
tp1616
a(g759
I12
S'if you like this food, you probably need to venture outside your suburban existence.'
p1617
tp1618
a(g347
I5
S'oh, the appetizers were incredible too, especially the sauteed portabello mushrooms.'
p1619
tp1620
a(g214
I12
S"now it's 2 hours after eating and i don't feel 100%.....a little stomach uneasiness."
p1621
tp1622
a(g299
I12
S'i went with a caesar salad to start, the salmon entree, and carrot cake for dessert.'
p1623
tp1624
a(g285
I7
S'for dessert we had the chocolate cake which was very rich and wonderfully delicious.'
p1625
tp1626
a(g1174
I3
S"good portion sizes, and the smells from other tables made me wonder what i'd missed!"
p1627
tp1628
a(g966
I0
S'went for the all-you-can-eat crab legs at the end of the summer and ate all i could.'
p1629
tp1630
a(g182
I13
S'the eggplant and lettuce wraps were awesome, and the lo mein was fairly predictable.'
p1631
tp1632
a(g182
I1
S'since we were going to be out of town for the uye, we stopped in a few days earlier.'
p1633
tp1634
a(g664
I7
S'the meals were also delicious although the salad plus the entree was too much food.'
p1635
tp1636
a(g549
I21
S"if you're a fine steakhouse, please use high quality produce, cheese, and balsamic."
p1637
tp1638
a(g70
I3
S'we asked if they use msg and the waitress indicated to us that yes they do use msg.'
p1639
tp1640
a(g799
I1
S'the seafood risotto is to die for, and my husband loved his pasta and sausage dish.'
p1641
tp1642
a(g122
I10
S"it's a little overpriced considering the location and d\\u00e9cor of the restaurant."
p1643
tp1644
a(S'80ZRRt6GCHshIlrWcJaf9w'
p1645
I3
S"it's so huge i had to share it with a friend and we still had trouble finishing it."
p1646
tp1647
a(g261
I11
S'my lobster bisque had a skin on it by the time it came out, my sidecar was average.'
p1648
tp1649
a(g464
I8
S'the wall decorations will come later once people figure out how good this place is.'
p1650
tp1651
a(g656
I4
S'we ordered cauliflower manchurian, veg coin manchurian, and burnt garlic friedrice.'
p1652
tp1653
a(g333
I14
S'definitely would order the himachi crudo, both entrees, and the profiteroles again.'
p1654
tp1655
a(g1
I8
S'the fish was just so gentle cooked that you feel it softened your teeth and tongue.'
p1656
tp1657
a(g1308
I3
S'the irish lamb stew was also pretty good, but the rueben sandwich was just average.'
p1658
tp1659
a(g182
I19
S"when we tracked him down he felt really bad he'd forgotten, and we were on our way."
p1660
tp1661
a(g182
I2
S"the location is strange, you definitely need to know where you're going to find it."
p1662
tp1663
a(g338
I8
S'somehow they are able to keep these thin fries piping hot for more than 2 minutes.'
p1664
tp1665
a(g707
I13
S"service: good - the waitress was attentive and helpful, but didn't get in the way."
p1666
tp1667
a(g452
I5
S'breakfast is available all day, and you can get a good variety for a decent price.'
p1668
tp1669
a(g759
I9
S'needed some serious freshening up (try putting a coat of paint on the trim guys?).'
p1670
tp1671
a(g1256
I1
S'the food is excellent the service was top notch and how can you beat the location.'
p1672
tp1673
a(g268
I4
S'mark & his staff knows how to treat people here, like they are part of his family.'
p1674
tp1675
a(g455
I4
S'everything from the time we arrived till the end of the reception was exceptional.'
p1676
tp1677
a(g113
I3
S'i had a bowl of the cream of mushroom and one of the chili, & both were excellent.'
p1678
tp1679
a(g364
I2
S'lastly i will comment about the staff everyone we met or encountered was pleasant!'
p1680
tp1681
a(g217
I3
S'when we got there, we asked again and were told they did not have frozen crawfish.'
p1682
tp1683
a(g131
I14
S'it was like mocha ice cream but lighter than ice cream with home made oreo crumbs.'
p1684
tp1685
a(g131
I8
S'the other half got a burger and i skipped to dessert because i am a sweets junkie.'
p1686
tp1687
a(g131
I3
S'this past visit my boyfriend and i got the pork belly pizza and the buratta plate.'
p1688
tp1689
a(g1
I11
S'okay, in a nutshell, write down my list in chinese or english, one way or another.'
p1690
tp1691
a(g220
I4
S'and haddock is what the best fish and chips are made from, especially in england.'
p1692
tp1693
a(g1563
I2
S'the lighting is romantic, the service was very good, the food was certainly good.'
p1694
tp1695
a(g554
I30
S'my wife is in the service industry, and we do our best to be polite and tip well.'
p1696
tp1697
a(g27
I0
S'i was part of the group of twelve with gemma m in amore dogs last\nsaturday night.'
p1698
tp1699
a(g198
I28
S'again, i had to order a side of rocket and tomato salad as the steak came as was.'
p1700
tp1701
a(S'6jxyxRXReBCtWzCChrY9LA'
p1702
I1
S'a little higher class than the one on ray, as this place used to be a steakhouse.'
p1703
tp1704
a(g520
I2
S'we will look no further... had the special - some snapper dish, as did my friend.'
p1705
tp1706
a(g299
I11
S"i was the only one at the table who didn't order off of the restaurant week menu."
p1707
tp1708
a(g171
I0
S"its really sad to hear john s. factor parking while rating the food at tarbell's."
p1709
tp1710
a(g44
I0
S'food reviews are sometimes about timing but i stopped by with a friend for lunch.'
p1711
tp1712
a(g951
I3
S'got wheat roll, dijon mustard, salami, swiss, some vegetables and banana peppers.'
p1713
tp1714
a(g510
I0
S'great wings, three different styles and a myriad of different sauces and flavors.'
p1715
tp1716
a(g1174
I2
S"we've eaten here about 5 times now, and only had one problem...eating everything."
p1717
tp1718
a(g131
I11
S'i was a little jealous but waited impatiently and snacked on the left over pizza.'
p1719
tp1720
a(g1
I4
S'but after 4 years living in beijing, to the dumpling and the owner, i say, bravo.'
p1721
tp1722
a(g70
I0
S'have eaten here four or five times, most recently was on this past tuesday nite.'
p1723
tp1724
a(g437
I7
S'rice and drinks were refilled as necessary, and service was friendly and prompt.'
p1725
tp1726
a(g198
I12
S'the only thing that i was a little put-down by is the presentation of the meals.'
p1727
tp1728
a(g15
I9
S'it can also be served with an oven-browned cheese crust, typically gruy\\u00e8re.'
p1729
tp1730
a(g633
I2
S'the interior decor consisted of a lot of dark wood characteristic of irish pubs.'
p1731
tp1732
a(g1382
I2
S'i thought 3 course (from a set menu) for \\u00a313.95 per person was a good deal.'
p1733
tp1734
a(g91
I1
S'underwhelmed and slightly offended would be the summary for my experience there.'
p1735
tp1736
a(g1203
I9
S"don't come all the way out to anthem for thai food, because you will not get it."
p1737
tp1738
a(S'3_EcIY97QfIOgmyD0D5Ciw'
p1739
I0
S'was disaponinted with the amount of time it took me to get service at the bar !!'
p1740
tp1741
a(g520
I3
S"we went for my mom's birthday and will definitely returning before her next one."
p1742
tp1743
a(g948
I0
S'there are weeks when my coworkers and i will eat at dara thai 4-5 days in a row.'
p1744
tp1745
a(g333
I9
S'we ordered the hand pulled mozzarella salad and himachi crudo for starters also.'
p1746
tp1747
a(g794
I7
S'i have held 2 company gatherings during various conventions without any problem.'
p1748
tp1749
a(g1232
I4
S'when we got our food, we had to constantly blow on it because it was piping hot!'
p1750
tp1751
a(g182
I11
S'we ordered the broiled eggplant, chicken lettuce wraps, and combination lo mein.'
p1752
tp1753
a(S'CK0Iio7wV6atBOLvqN2guA'
p1754
I1
S'most of them are kind of far for me because i live in the far north of phoenix.'
p1755
tp1756
a(g145
I2
S'i sympathize for those who are new at something and maybe its their first time.'
p1757
tp1758
a(g707
I14
S'food came out in reasonable amount of time, and everything came out as ordered.'
p1759
tp1760
a(g707
I10
S'the fries were ridiculously crispy, and just had that beautiful crunch to them.'
p1761
tp1762
a(g826
I7
S'they also picked up our wineries the next day which was nice of the wine buyer.'
p1763
tp1764
a(S'8FwqFcl2Ez1NoovZr1XoHA'
p1765
I7
S'might be little pricier then blimpie, but with it due to the over load of meat!'
p1766
tp1767
a(g198
I40
S'and we got to take our wine downstairs to underdogs after to mull a bit longer.'
p1768
tp1769
a(g633
I4
S"i've never had them until now, there was just the right amount of zest in them."
p1770
tp1771
a(S'561VBLTmXwzcAuMaM3W__A'
p1772
I0
S"we keep going back, for the price you can't beat it, have not been let down yet"
p1773
tp1774
a(g575
I1
S'filet mignon tasted better than the one i ate in maui at ruth chris steakhouse.'
p1775
tp1776
a(g100
I1
S'i ordered the dry aged 20 oz ribeye medium rare and it was medium well to well.'
p1777
tp1778
a(g128
I0
S'i received some dining credits from hilton & noted that voodoo was on the list.'
p1779
tp1780
a(S'22si6Ufpvh1qrjLaI5CiOQ'
p1781
I2
S'they pile it on a bed of mashed potatoes with carrots, green beans, and onions.'
p1782
tp1783
a(g613
I13
S'if they had sold it in to go containers, i would have bought some to take home.'
p1784
tp1785
a(g131
I1
S"place looks awesome inside and out.. we've been here 3 times since it reopened."
p1786
tp1787
a(S'CLHXuO1-gcnX-Oocqsuthw'
p1788
I0
S'my family likes this place very much, a usual stop while at jean talon market.'
p1789
tp1790
a(g70
I14
S'other than that the taste was fine, especially liked the added chilli peppers.'
p1791
tp1792
a(g437
I5
S"the ma po tofu and beef with bitter melon were some of the best that i've had."
p1793
tp1794
a(g759
I6
S"it's one of those places where there is not a real thai person in the kitchen."
p1795
tp1796
a(g347
I3
S"even the tiramisu was good (although not as coffee flavored as we're used to)."
p1797
tp1798
a(S'6eqb8j8FTcPs7fb2NU_q8Q'
p1799
I2
S"at least they they so stupid they under charged me.... at least that's a plus."
p1800
tp1801
a(g1377
I4
S'a few of my favorite dishes are the scotch beef and the chicken sausage pasta.'
p1802
tp1803
a(g651
I17
S"but paul's twice-fried pork was so good, i actually found myself enjoying pig!"
p1804
tp1805
a(g207
I9
S"if peter cancro, the ceo of mike's really cares, he'll get his meat elsewhere."
p1806
tp1807
a(g494
I10
S'consider i was not offered a bite as i usually am it must have been delicious.'
p1808
tp1809
a(g1272
I5
S'able to compare online menu; as service so slow full 8$ more on our menu!!!!!'
p1810
tp1811
a(g458
I3
S'always make customers wait extra longer time, eat there or to go or delivery!'
p1812
tp1813
a(g707
I9
S'my wife, who is picky, got the hot and smoky burger, which was great as well.'
p1814
tp1815
a(g1216
I4
S'bottom line is that we had ordered a lot of food based on her recommendation.'
p1816
tp1817
a(g1126
I2
S"it's perfect every time & on top of the great food, the service is excellent."
p1818
tp1819
a(g125
I4
S'they brought me cake with a candle for my birthday, service was good as well.'
p1820
tp1821
a(g554
I19
S'because our waiter apparently went home for the night after taking our order.'
p1822
tp1823
a(g387
I9
S'i did not try it when it came around but everyone who ate it really liked it.'
p1824
tp1825
a(g442
I10
S'ask you server the next time you dine downstairs about some of the artifacts.'
p1826
tp1827
a(g608
I7
S"couldn't ask for more from a sandwich shop, other than slightly lower prices."
p1828
tp1829
a(g171
I3
S"one of their signature dishes and probably some of the best i've had in town!"
p1830
tp1831
a(g887
I8
S'with all the great places in town this joint needs to up its game big time !!'
p1832
tp1833
a(S'1LMr7zwScKODvYABPNTzbw'
p1834
I3
S'my ginger seafood combo was spectacular, with scallops done perfectly tender.'
p1835
tp1836
a(g30
I7
S'just a few bites in, my expectations for the rest of the meal were very high.'
p1837
tp1838
a(g717
I5
S'my husband had the carpaccio which was plated amazingly and tasted delicious.'
p1839
tp1840
a(g717
I3
S'i was impressed by how quickly after we ordered that our appetizers came out.'
p1841
tp1842
a(g1232
I5
S'it was almost as if they took the whole plate and put it in the oven to cook.'
p1843
tp1844
a(g969
I7
S'the sandwich had a lot of crab that was in light sauce, fortnately not mayo.'
p1845
tp1846
a(g1754
I5
S'try the pad thai and the curry fried rice i recomend it with pork or shrimp.'
p1847
tp1848
a(g1007
I1
S'i took my girlfriend there this past saturday evening for dinner (10/22/11).'
p1849
tp1850
a(g525
I2
S'both were excellent and both dishes were big enough for two people to share.'
p1851
tp1852
a(g76
I3
S"the kung po chicken is probably the best version of this dish i've ever had."
p1853
tp1854
a(g546
I3
S"bay area refugees looking for the real deal need look no further than miu's!"
p1855
tp1856
a(g145
I12
S'asking us what we were waiting for and what our order was after telling him.'
p1857
tp1858
a(g437
I4
S'each was a large portion of food, with a distinct flavor, and well seasoned.'
p1859
tp1860
a(g554
I3
S'i had the linguine in white wine sauce, with fried calamari as an appetizer.'
p1861
tp1862
a(g764
I6
S'by and large, it tastes fresh and is surprisingly not-heavy in your stomach.'
p1863
tp1864
a(S'4h1IZhnH3JwIYOJ3yiJGLw'
p1865
I2
S'overlooks the strip and clean upscale restaurant...would definitely go back!'
p1866
tp1867
a(g134
I17
S'very delicious and buttery tasting, even though they were on the small side.'
p1868
tp1869
a(g1781
I1
S'the "scotch beef" (pot roast) is absolutely the best i\'ve ever had anywhere.'
p1870
tp1871
a(g217
I6
S'the waiter came back apologizing saying that we were served frozen crawfish.'
p1872
tp1873
a(g678
I10
S'i mean, did he think i was an irish wolfhound who would gnaw on the bones???'
p1874
tp1875
a(g333
I1
S'i would definitely recommend this restaurant and we will definitely go back.'
p1876
tp1877
a(g613
I15
S'i don\'t think i\'ve ever had a "chewy" reuben, so that wasn\'t very promising.'
p1878
tp1879
a(g1174
I7
S'but last time we got the tomahawk which probably took 30 minutes to prepare.'
p1880
tp1881
a(S'-bFcRZIvSm7SK4GpGyseRg'
p1882
I0
S"this is my 4th thai food review and i'm just now realizing i have a problem."
p1883
tp1884
a(g458
I9
S'and as a chinese, i can assure you that other places have much better food.'
p1885
tp1886
a(g549
I5
S'they have a nice deck where you can go out and lounge and take in the view.'
p1887
tp1888
a(g338
I17
S'the waitress did a good job of checking up, but not being overly attentive.'
p1889
tp1890
a(g70
I13
S'it would have been perfect if they did not cook it for as long as they did.'
p1891
tp1892
a(S'9FY1fducJGYyrReudszc8g'
p1893
I0
S'funny how bad service can tip an already poor experience to the black list.'
p1894
tp1895
a(g189
I4
S'i would have expected something a little more refined in such a restaurant.'
p1896
tp1897
a(g667
I2
S'i had the scotch beef and my wife had the salmon, great flavor and quality.'
p1898
tp1899
a(g323
I6
S"this isn't by any means my favorite place, but at 3am, it's a great option."
p1900
tp1901
a(S'6LqPr8U2X0xEgUivNdACZw'
p1902
I6
S'this was a great choice, the chicken was cooked perfect and full of flavor.'
p1903
tp1904
a(g633
I0
S'my girlfriend and i visited this restaurant after i had a school interview.'
p1905
tp1906
a(g1024
I3
S"i like the space and the patio but it means nothing if i can't get a drink."
p1907
tp1908
a(g91
I26
S'final thoughts:  after some consideration, i still gave this place 2 stars.'
p1909
tp1910
a(g1203
I4
S'by the way, did i mention my husband and i were the only two people there?!'
p1911
tp1912
a(g268
I3
S"not once in all the years we've dined here, did we ever leave disappointed."
p1913
tp1914
a(S'2M2P9rDIyYiwXd1TnEXtcA'
p1915
I0
S"my ex used to love this place but i'll try not to hold that against it, ha!"
p1916
tp1917
a(g972
I1
S'we drove by this place many times and thought we would try something local.'
p1918
tp1919
a(g995
I5
S'they only brought out one tinyyyyy thing of sour cream, which irritated me.'
p1920
tp1921
a(g678
I4
S'mine was the last to come out, and when it did, i said, "where\'s the beef?"'
p1922
tp1923
a(g966
I3
S'they had nothing else worth eating for the poor non-crab eater i went with.'
p1924
tp1925
a(g182
I10
S"for this meal, we wanted to try a few things to get a proper feel of miu's."
p1926
tp1927
a(g313
I0
S"i've heard that pizza sola is a chain, but i've never been to another one."
p1928
tp1929
a(g458
I2
S'and what makes it the worst chinese restaurant is their super bad service.'
p1930
tp1931
a(g165
I8
S'i highly recommend the war wanton soup... and everything else on the menu.'
p1932
tp1933
a(g1216
I1
S'the lights were so dim that we had to use the our phones to read the menu.'
p1934
tp1935
a(g1465
I4
S'i almost threw up and only ate it because i havent eaten in over 10 hours.'
p1936
tp1937
a(g239
I0
S'ri-ra\'s is an irish pup, not a stereotypical chinese man saying "we lost".'
p1938
tp1939
a(g1902
I1
S'our first two choices looked good but too late for food it was music time.'
p1940
tp1941
a(g1382
I3
S"an early dinner straight from work because i couldn't be bothered cooking!"
p1942
tp1943
a(g651
I14
S"paul had a bit, and even though he's not a weirdo vegetarian, he liked it."
p1944
tp1945
a(g106
I7
S'turns out they were actually having issues with the slicer the day i went.'
p1946
tp1947
a(g227
I4
S'the staff was not friendly and we had better service at the casino buffet.'
p1948
tp1949
a(S'4X5WkBXGqDF5ZUUT7KNYZQ'
p1950
I2
S"service was slow but it was like week 3 so i can't be negative about that."
p1951
tp1952
a(g282
I7
S"we could tell that those who didn't had to wait quite a while for a table."
p1953
tp1954
a(g717
I9
S'to finish the night we had both the warm chocolate cake and the apple pie.'
p1955
tp1956
a(g407
I4
S'she came out with orders and dropped the tray as she was handing out food.'
p1957
tp1958
a(g1308
I4
S'after a couple of pints of guinness everything was alright with the world.'
p1959
tp1960
a(S'-JJyBUL-UMi5B8Kx0tcMJQ'
p1961
I2
S'my last meal before death penalty would be pepper steak and bread pudding.'
p1962
tp1963
a(g47
I3
S'my husband and i had never been here and were just wanting to try it out.'
p1964
tp1965
a(g47
I2
S'not only was the food incredible but the service was outstanding as well.'
p1966
tp1967
a(g145
I4
S".but the entire sunday staff doesn't seem to know how to get it together."
p1968
tp1969
a(g1511
I5
S'it came loaded with lettuce and tomato...\n\nmy lunch was really flavorful.'
p1970
tp1971
a(g361
I2
S'the wait staff is super nice and will remember you after you go one time.'
p1972
tp1973
a(g244
I1
S'les cr\\u00e8pes sont rapidement faites, mais particul\\u00e8rement bonnes!'
p1974
tp1975
a(g984
I7
S'she did a great job, but it was disappointing that we had to fill her in.'
p1976
tp1977
a(g1799
I1
S"the food is good just don't expect any with a brain stem to help you out."
p1978
tp1979
a(g1103
I5
S'we were regulars, monthly to every other month we would go for crab legs.'
p1980
tp1981
a(g898
I1
S'me and my wife had the best steaks of our lives here t the voodoo lounge!'
p1982
tp1983
a(g1781
I0
S'this is absolutely my favorite restaurant to go to when visiting phoenix.'
p1984
tp1985
a(g116
I0
S'we ate here on a business trip as part of a recommendation from a friend.'
p1986
tp1987
a(g393
I2
S'a plus is a cold glass that was served alongside the cold bottle of beer.'
p1988
tp1989
a(g1265
I9
S"my steak was cooked perfect and we couldn't stop eating the mac n cheese!"
p1990
tp1991
a(g119
I8
S"they're not kidding about sticking a slice of american cheese in there.)"
p1992
tp1993
a(g41
I4
S"there isn't a tv for every 10 degree turn of the head, so that's a plus."
p1994
tp1995
a(g458
I0
S'honestly many other chinese restaurants have much better food than this.'
p1996
tp1997
a(g220
I10
S"a little small for me (i'm a big guy), but perfect for her petite frame."
p1998
tp1999
a(g984
I4
S'dad got the spaghetti and meatballs and he compared it to chef boyardee.'
p2000
tp2001
a(g387
I12
S'the food looked amazing when it came out and i tried everything i could.'
p2002
tp2003
a(g387
I6
S'it is in a rough part of tempe but once your inside, it is not that bad.'
p2004
tp2005
a(g1902
I3
S'we sat on the patio and they had a one man band playing and he was good.'
p2006
tp2007
a(g214
I14
S'so i paid my almost $90 bill with a smile....but will not be going back.'
p2008
tp2009
a.