(lp0
(S'-JJyBUL-UMi5B8Kx0tcMJQ'
p1
I0
S'they do a great job even if sitting at the bar.'
p2
tp3
a(S'8nPjYUQT1nnWeKDKMK_WHg'
p4
I6
S"the lunches looked good and home-style, but i'm just a breakfast girl."
p5
tp6
a(S'5k_6P-Ipz2O7jYcOac2ldw'
p7
I2
S'everyone at our table left satisfied.'
p8
tp9
a(S'A9KVdHYkYYXMbI26_cwZ6w'
p10
I3
S'go to crazy buffet for that crap.'
p11
tp12
a(S'22si6Ufpvh1qrjLaI5CiOQ'
p13
I0
S'this is absolutely my favorite restaurant to go to when visiting phoenix.'
p14
tp15
a(S'2f2l3Bglv_mNzRk3OMZ-Dg'
p16
I2
S'the whole reason i came to south china was to satisfy my immense craving for dumplings.'
p17
tp18
a(S'5swbGEiErjYktFlufOVaDA'
p19
I9
S'plus we are club members and were never notified of any of the changes.'
p20
tp21
a(S'AkbJwBJj1guobBp4W_jfWA'
p22
I0
S'went here for a pre-game meal, looking forward to seeing my beloved chicago bulls whip the bobcats butts (which they did, by the way, with out d-rose).'
p23
tp24
a(S'3Ejww5cB0Y_l7ToGicFdZQ'
p25
I2
S'mmmm!'
p26
tp27
a(S'5VMhcWSni4pqsQ-e5p6UJg'
p28
I0
S'this place is amazing!!'
p29
tp30
a(S'5U7urMiT9h_eTnlgv_uauw'
p31
I10
S'i tend to eat vegetarian, so i asked our server what he recommended from my possible choices.'
p32
tp33
a(S'3q68-kr8ivTPMGfPGKYm5w'
p34
I14
S'great menu selection and it was hard to choose, but for my entree i had a 8 oz filet with a side of creamed spinach, it was rare, just the way i ordered it and it melted in your mouth it was soooooo good.'
p35
tp36
a(S'5hyXaELZOyxiyBS3hHUohg'
p37
I11
S'the macc and cheese could have been from any mediocre buffet and the broccoli was practically raw.....way too crunchy and tough.'
p38
tp39
a(S'8V7sk8UNeQp0F3EJVLhJGA'
p40
I10
S'my pet peeve is hot food coming out warm or room temp!'
p41
tp42
a(S'8VYXDx4qKxZLVCfsHeT_9g'
p43
I7
S'my non-gf friend agreed with me about the quality, even though her slice was fresher than mine.'
p44
tp45
a(S'CJaZ7JN-wKrQeWoTL7sR0A'
p46
I7
S"(protip: you don't want the standard two-taco set."
p47
tp48
a(S'8pGFz2MZj0Es-KLTWB9s4Q'
p49
I32
S"we won't be back here any time soon."
p50
tp51
a(S'60LmU8XCOm_ZaZP5qs2-5Q'
p52
I1
S'she said that it was a place that she came to with her friends whilst in high school and wanted to take me there for a relaxing lunch.'
p53
tp54
a(S'9yUayuA-oC5hscjFM8MtRw'
p55
I3
S'we asked if they use msg and the waitress indicated to us that yes they do use msg.'
p56
tp57
a(S'84istL3L2e43HUrFHtE9wQ'
p58
I12
S"i am sure they aren't trying to offend their clientele but if you don't mind try and check it out."
p59
tp60
a(S'2-SD2lS2u_LXu5wUxma3Lg'
p61
I6
S'what a shame, because they did a great job on the renovation.'
p62
tp63
a(S'5sj8LuAWFgfgjiHV6tTjZQ'
p64
I12
S'the atmosphere felt a tad dated but it almost made it all the more charming... kinda like we were stepping back in time a bit.'
p65
tp66
a(S'AxDBxV87AhAwNouYdbOWHA'
p67
I4
S'pros: as most say, the view of the lv valley.'
p68
tp69
a(g37
I14
S'so i paid my almost $90 bill with a smile....but will not be going back.'
p70
tp71
a(S'-bFcRZIvSm7SK4GpGyseRg'
p72
I3
S'it does live up to its hype!'
p73
tp74
a(g43
I8
S"my gf friend, on the other hand, really enjoyed her slice, but she said she suspected this was just because it'd been so long since she'd actually had pizza."
p75
tp76
a(g34
I5
S'our waiter was very helpful and informative about the menu.'
p77
tp78
a(S'5UsiAQvgZ6lpfEBfcrrvAw'
p79
I2
S'despite having spent a year in mainland china quite some years ago, i did not find myself drawn to "large intestine", no matter how authentic, and our gang of four settled elsewhere on the menu to happy results all around.'
p80
tp81
a(g34
I7
S'i had 1/2 dozen oysters and they were on the small side but very nice.'
p82
tp83
a(S'7SorPHCj9zWuFXQFY_6_Vw'
p84
I9
S"on the server's recommendation i ordered housemade ribbon noodles with homemade chicken fennel sausage, tomato, spinach in a rich buttery broth for my entree."
p85
tp86
a(S'41Uh-5XP9vH1zNa_c4rnlw'
p87
I10
S'consider i was not offered a bite as i usually am it must have been delicious.'
p88
tp89
a(S'6jxyxRXReBCtWzCChrY9LA'
p90
I3
S'and the new strippers chicken baskets are amazing!'
p91
tp92
a(g19
I5
S'we were regulars, monthly to every other month we would go for crab legs.'
p93
tp94
a(S'77c9wz87UeUzmAwJjYSeSA'
p95
I0
S'like many of the reviewers here have noted, i had pretty high expectations before we ever sat down at our table on friday night.'
p96
tp97
a(S'599GMq-g04xWuELQBAjsPQ'
p98
I1
S'i am really impressed by their business, last week we got two regular subs, when we got home we noticed that it seemed to be lacking in meat and the cheese was non-existent on one and paper thin on the other.'
p99
tp100
a(S'-Oazg8eredExg722SQuQqg'
p101
I0
S'i have four words for this place: yum, yum, yum and yummy!'
p102
tp103
a(g52
I3
S'the fried pickle chips she recommended was one of the tastiest things i have ever eaten.'
p104
tp105
a(S'5nREKhkIXZPo6JgkmbBtAQ'
p106
I1
S"if i was rating strictly on my entree which was the filet cooked meduim (which is always what i order at any steak restuarant) i'd have to give them a 2 star."
p107
tp108
a(S'-rQEwF8Aihan0GyGHJDF3g'
p109
I8
S'in other words, the pavilion is more than just a place to get a bite, but a place to spend the day, the night, or sometimes even the whole summer.'
p110
tp111
a(S'1_dzUDchJyPVCylfj7Yu8A'
p112
I3
S'the only reason i gave it a 4 was only because they ran out of med rare!'
p113
tp114
a(S'BpXk8RdYJeiD8NNtq9aYTg'
p115
I6
S'much to our surprise she showed up with a complimentary plate of mixed veggies to try since it was our first time there .... and no surprise at this point but the vegetables were incredible as well.'
p116
tp117
a(S'8HRZznFT1tYXXjly45kB2Q'
p118
I5
S'though, i only ordered chicken which is hard to do great since, i knew that it was one of the few entrees i could finish.'
p119
tp120
a(S'1sxYXd58qW9jTmcAN7on_A'
p121
I1
S'pretty authentic.'
p122
tp123
a(g46
I9
S'you will not experience revelations on the scale of smashburger, and these really aren\'t "better burgers" so much as "way more out there burgers."'
p124
tp125
a(S'2rKzAUZfJ9FvCkk5YQQqKw'
p126
I9
S'he was patient with both my husband and our friend jared as they went back and forth on what they wanted to order quite a few times.'
p127
tp128
a(S'9bMVEoxcZul2ksJSFocPXQ'
p129
I1
S'the lights were so dim that we had to use the our phones to read the menu.'
p130
tp131
a(S'4XczQlVWvzE4LguYcU_1uQ'
p132
I8
S'the view outside was great, but not at 140 f. \n\nwhen we got into the restaurant, there was a weird lion/leopard/africa them to the chairs, but a decidedly french/american menu.'
p133
tp134
a(S'59jvJf_z2UnmFTewTUBseg'
p135
I2
S'first off,  i ordered the italian sub that comes with the works (5 different meats) and is supposed to come with provolone.'
p136
tp137
a(g84
I14
S'the fennel seed was so overpowering i could not eat it all.'
p138
tp139
a(S'9BE9tZid_VYSX-SZ24ud2g'
p140
I0
S'awesome new tavern.'
p141
tp142
a(g19
I6
S'well not any more.'
p143
tp144
a(S'6F5vS9netV1Gm7AOqMuG7A'
p145
I2
S'sometimes they have large parties that come in by bus unexpectedly so there can be a challenge for the waiters.'
p146
tp147
a(S'ACJQQHZ-JAuhsoV3lbLxCg'
p148
I6
S'the guy at the register made no apology or attempt to find some way to provide something to eat with.'
p149
tp150
a(S'CK0Iio7wV6atBOLvqN2guA'
p151
I0
S'i have eaten at many of the valleys fine thai restaraunts.'
p152
tp153
a(S'6Yo038ipIHdxQQv9QXW9WQ'
p154
I3
S'but you did not come for the service.'
p155
tp156
a(S'8OARXBcK-X4Ykf5CDq4m7Q'
p157
I3
S'i had the pad thai which tasted so syrupy sweet i wanted to gag.'
p158
tp159
a(g135
I7
S"boar's head doesn't come in close to thumann's but i'll take boar's head when nothing else is available."
p160
tp161
a(g135
I9
S"if peter cancro, the ceo of mike's really cares, he'll get his meat elsewhere."
p162
tp163
a(S'7FASrs-VnLVNQ2mrn6oaww'
p164
I27
S'also, my swordfish steak from the grill menu.'
p165
tp166
a(S'9lE6QzNJI0h1tSoXvFpozA'
p167
I3
S'relaxing atmosphere, great place to kick back and enjoy a meal.'
p168
tp169
a(S'3mUmCPaWcxCjRM4-QmOoug'
p170
I4
S'but before that i will be a hippie mother.'
p171
tp172
a(S'ADqwwjBUilyXX4rEazGgjg'
p173
I1
S'and we are in love.'
p174
tp175
a(S'4miq2kvSgVZkNpIcxgg5bA'
p176
I0
S'what an amazing dinning experience.'
p177
tp178
a(g126
I23
S'double date or biz dinner, anyone?'
p179
tp180
a(S'AIEAij3n8s_NyZpN6lRswA'
p181
I3
S'can not wait to return.'
p182
tp183
a(S'AFVni8_I2CEAluAb-wSwMA'
p184
I17
S'the waitress did a good job of checking up, but not being overly attentive.'
p185
tp186
a(g84
I12
S'the sausage looked like a breakfast pattie that had been browned on one side and then broken into pieces.'
p187
tp188
a(g31
I18
S'even the leftovers (portion size = generous here), were great.'
p189
tp190
a(g79
I8
S'delightful in itself, a light, not "heavy", lightly sweet dessert, a wonderful compliment to the meal as well as a utilitarian palate-cleansing restorative to the spice-numbed tongue, though from a marketing perspective i might recommend they come up with a more appetizing pseudonym for "glutinous rice balls".'
p191
tp192
a(g67
I17
S'the price is not on the menu... that should have been our first clue.'
p193
tp194
a(S'-aPQw2ICvSlslbFxS0XHSg'
p195
I4
S'their house made bread went perfect with the cheese and the little salad it came with but i wouldnt have minded another kind on the plate.'
p196
tp197
a(S'8uzaxTfoPOYh2bk_InZd7g'
p198
I11
S"if the restaurant was in downtown scottsdale or tempe with upscale d\\u00e9cor i would definitely say this place is four or five stars, but i wouldn't take a first date to this place unless she was a foodie."
p199
tp200
a(S'3A5jK284MfFQk8oxS2sTug'
p201
I5
S'both the manchurians were only warm, as opposed to being hot.'
p202
tp203
a(S'4knHOJAXAJZTZsh-HkMt1Q'
p204
I2
S'first, i would like to say that the service was dreadful.'
p205
tp206
a(S'AxJ0MIegwWq6luou4knmyA'
p207
I6
S'the salads were great and quite big.'
p208
tp209
a(S'-YL5TqbHKvc3HgdHxHRouQ'
p210
I1
S'it is a must stop each and every time i am in charlotte.'
p211
tp212
a(g121
I4
S'love it!'
p213
tp214
a(S'2JvlqHmcTWK-Bv4A7sXeOA'
p215
I1
S'we drove by this place many times and thought we would try something local.'
p216
tp217
a(S'0NDTXGpOTN_CdgLKDwbwHA'
p218
I1
S"food comes out quickly, even if it's busy and a rather complicated order when our son's baseball team comes by for after tournament festivities."
p219
tp220
a(S'4wRuohy4eAelIP6lRZz6PA'
p221
I16
S'insanely, there was too much meat!'
p222
tp223
a(S'1O8fyATaHaR5MGCNxljI9g'
p224
I2
S"i had the lasagna and the pasta was perfect; i couldn't stop from eating the whole thing and had no room for dessert."
p225
tp226
a(S'2bfoshJlkHgx9IFugJr3Bw'
p227
I0
S"this location specifically made me a fan of lenny's."
p228
tp229
a(S'-BfOwq5-_opqlbSWPTdb6w'
p230
I6
S'the tables and decor felt classy, but the bright fluorescent lighting contrasted for a more industrial feel.'
p231
tp232
a(g157
I1
S'i am from seattle and i am used to really good thai food.'
p233
tp234
a(g55
I12
S'the green beans with garlic sauce was over cooked.'
p235
tp236
a(S'9c-dc0NwXlGNt5PoYA8lcw'
p237
I11
S'as other reviewers have mentioned, the fried capers on the tartare are extra-special good.'
p238
tp239
a(g31
I19
S'i hope yelp keeps this place alive - it is that good!'
p240
tp241
a(S'6gMvUMU-ePd-v71x2xMH3g'
p242
I3
S"even the tiramisu was good (although not as coffee flavored as we're used to)."
p243
tp244
a(S'0t0kkFIPvJbp2HGjvLvwKg'
p245
I16
S'i love that it offers a private room in back and a nice patio out front.'
p246
tp247
a(g43
I9
S"i've heard the quality of the pizza at this place is inconsistent, and that some days it's better than others, so i'd be willing to try it again if i happen to be in the area, but i wouldn't go out of my way for it."
p248
tp249
a(g132
I9
S'we had a nice view.'
p250
tp251
a(S'44yXnCWfRqxjYTSOz2kQUA'
p252
I3
S'and the prices were not that bad being as nice of a place as it was!'
p253
tp254
a(g126
I5
S'so, of course i had high expectations going in.'
p255
tp256
a(S'-Kg-uDqum7w8vwLtaYKdEg'
p257
I0
S'good food, good service, good brew, and a very low-key place.'
p258
tp259
a(g55
I31
S'that would be a big plus.'
p260
tp261
a(S'-zuInteKzMGePM9eoWUfLg'
p262
I4
S'the service was world class.'
p263
tp264
a(S'3kbFoqsQGekQOBkpbrvw1w'
p265
I3
S"the menu is italian influenced, you'll find pizza and pasta on the menu alongside dogs's staples like coley and skirt steak."
p266
tp267
a(S'0S23kqkADnt0WuzgxHlqfw'
p268
I1
S'i am so happy i finally did.'
p269
tp270
a(S'6LqPr8U2X0xEgUivNdACZw'
p271
I7
S'not greasy just crunchy and delicious.'
p272
tp273
a(S'12bupTNyycNPXhf9JXXyzw'
p274
I1
S'food quality, service, ambience, amazing!'
p275
tp276
a(S'6YneHLieBPpJN-ITCAG3ww'
p277
I8
S'lobster thermidor is a french dish consisting of a creamy mixture of cooked lobster meat, egg yolks, and cognac or brandy, stuffed into a lobster shell.'
p278
tp279
a(g195
I8
S'the other half got a burger and i skipped to dessert because i am a sweets junkie.'
p280
tp281
a(S'2JFxOFk-K1CQsyph2Inlvg'
p282
I1
S"today i was joined by robyn n. for lunch here & it didn't disappoint."
p283
tp284
a(S'1upkuLMe6u1EriPks_7qjw'
p285
I0
S"civilized, respectable locations don't charge separate covers for the gander and the goose."
p286
tp287
a(g184
I8
S'somehow they are able to keep these thin fries piping hot for more than 2 minutes.'
p288
tp289
a(S'Aauep7_I5QfmP3Tf9WUcfA'
p290
I2
S'wow!!!!!'
p291
tp292
a(g115
I4
S'we ordered wine ( which was divine) the mac and cheese and salmon dish to share, and the kale salad.'
p293
tp294
a(g164
I26
S"but not the best he's had."
p295
tp296
a(S'9QFZoPrQmJIVJ4belxhfwg'
p297
I4
S'rigatoni al amitriciana always appeals to my half italian taste buds, as does the amazing seafood linguine.'
p298
tp299
a(g167
I5
S'food: excellent - the food here is great.'
p300
tp301
a(S'2N53CeBKGkCHyG0bopY4cw'
p302
I2
S'great romantic setup,  the food was delicious.'
p303
tp304
a(S'-W0pEnhxUUZai1ra5NS5Vg'
p305
I3
S'like someone else mentioned, the salsa was very bland.'
p306
tp307
a(S'65bkEkGp8DWCXsRMwRF7BA'
p308
I2
S'all small plates were half off for happy hour making this place a steal for good food.'
p309
tp310
a(g221
I7
S"she continues to just stare at me like i'm a two headed alien."
p311
tp312
a(g157
I4
S'my dining companion had the crispy duck which was equally slathered in what tasted like bottled or pre-made production sauce.'
p313
tp314
a(S'3zbsgICVzggfgj0BYu55Yw'
p315
I0
S'sad experience, way under staffed, waiter was pleasant but hurried and cared less what you ordering.'
p316
tp317
a(S'-dzOO077c8oNaIMq1ap1kg'
p318
I3
S'if looking for a bite in anthem,  you have to consider this place.'
p319
tp320
a(g64
I11
S'all told, it was a perfect evening.'
p321
tp322
a(S'COvx8kjtOt867ppc8KHv6Q'
p323
I10
S'so i just made it like a lettuce wrap.'
p324
tp325
a(g195
I6
S'ohhhh my god!'
p326
tp327
a(g22
I5
S'well, suffice it to say, these were the best fish and chips i had here in charlotte!'
p328
tp329
a(g126
I3
S'"my go-to restaurant on the camelback corridor."'
p330
tp331
a(g7
I5
S'the pony salad was a little more sizeable, less sweet as it was topped with blue cheese and bacon bits, and the smoked salmon was a fantastic touch.'
p332
tp333
a(g164
I9
S'the ambience here is nice in a relaxed way.'
p334
tp335
a(g308
I0
S'stopped in on whim for happy hour.'
p336
tp337
a(g157
I8
S'the bathroom (one) was pretty dirty and gross.'
p338
tp339
a(g87
I0
S'that being said, caesar salad wasnt anything to write home about.'
p340
tp341
a(S'0OZoT5C44iWEQTMNnVkROg'
p342
I0
S"went here for dinner last night and haven't been in over 3 years."
p343
tp344
a(g101
I7
S'wednesday was our server and she rocked it.'
p345
tp346
a(g224
I4
S"even though the runners made a slight gaff (brought our entr\\u00e9es before our salads) it's not going to stop me from giving them five stars."
p347
tp348
a(S'9Pyn7uiSB-7fWtziZL2Zbw'
p349
I4
S'spinach dip the only saving grace.'
p350
tp351
a(S'8cy7kr92chZSOUDoyt3y3w'
p352
I3
S'asked for extra sauce and they charged $2.75 without telling me and gave me extra cheese!'
p353
tp354
a(S'8SX8bCcwmUf3-qqKC1lqBA'
p355
I2
S'wait staff very friendly and.efficient.'
p356
tp357
a(S'321SNCqAWNCWQ5_mXbgXOQ'
p358
I7
S"only when i'm craving for a indo-chinese food"
p359
tp360
a(g170
I1
S'i have no idea why except to say it has a really "good vibe" but here, i\'ll set the scene for you:\n\ni am pretty sure that one day i will be old.'
p361
tp362
a(g245
I17
S"needless to say, our evening was great from start to finish, so i say giddy up... if you're looking for somewhere new to check-out, you can't go wrong with the (new version of) the pink pony!"
p363
tp364
a(S'60FY-3G-o_Hsa2pY3yKQCQ'
p365
I6
S'no wonder mark beat cat cora on iron chef america.'
p366
tp367
a(S'9PCx7yd9FzsOLIHVlul6jA'
p368
I2
S'we got a few different dishes, and left very full and satisfied, with lots of leftovers for the next day!'
p369
tp370
a(S'253RGdUq1LDl_c469LjVuw'
p371
I0
S'there are weeks when my coworkers and i will eat at dara thai 4-5 days in a row.'
p372
tp373
a(g148
I2
S'the salad looks like it could be good, but there is no way for me to know because they were out of utensils.'
p374
tp375
a(S'8NbIVco9v9_4xa9SbnoKJA'
p376
I0
S'we had a wonderful dinner and will be back.'
p377
tp378
a(S'183hgO5dwRSVb6n7IqabUw'
p379
I6
S"i took my dad here once & he scoffed at the beginnings of his 'samich until he saw the finished product...and could barely finish it (and he can pack away some food!)."
p380
tp381
a(S'BSPI9ojYnOKnU9XZU3tkPw'
p382
I0
S'amazing decor with a modern and intimate feel.'
p383
tp384
a(g79
I14
S"dining area and mens' room: clean."
p385
tp386
a(S'0-PJDm5vW9ZfHsF2mg_y6g'
p387
I1
S'i would definitely recommend this restaurant and we will definitely go back.'
p388
tp389
a(S'14rg-QqMErTn1Xq-cPymKw'
p390
I11
S"a genuine thank you to tarbell's, and nathan, for making this dinner such a fantastic experience."
p391
tp392
a(g207
I2
S'much different ambiance than the pasta shop bur there was a nice waiter who looked like a cross between john waters and johnny depp.'
p393
tp394
a(g67
I2
S'had a really nice dinner here.'
p395
tp396
a(g282
I0
S"it's been just a week short of two years since i was up here to enjoy this nice buffet."
p397
tp398
a(S'0Y5_6CejQ8ospiDcTFX3Bg'
p399
I3
S'especially the one in meadows mall.'
p400
tp401
a(g342
I8
S'my husband had the mr. fish which last night happened to be halibut, it was served with the best tasting hummus i have ever have.'
p402
tp403
a(S'80ZRRt6GCHshIlrWcJaf9w'
p404
I4
S'the service was very attentive.'
p405
tp406
a(S'1EH_JXTXqWXm3jkg43iVOA'
p407
I5
S"if size matters (i did get the 15 inch one, and had it for lunch and dinner, but wouldn't call it a great value either)."
p408
tp409
a(S'8jRIZsysu-YBXZlkm04U2w'
p410
I0
S'great, huge new york slices are to be had at pizza sola and the toppings are interesting enough to set them apart from other shops.'
p411
tp412
a(S'2d8tj8Z-RG19A3PBTEb8vg'
p413
I7
S'anyhow!'
p414
tp415
a(S'1DAJEjLveTYhFLkrb4f2ZA'
p416
I3
S'it was a two star restaurant before, now 3.5 - 4 stars.'
p417
tp418
a(S'9pNO0g9VxhoI0s4GitFLCA'
p419
I1
S'also, the veggie calzone was amazing and cheap!'
p420
tp421
a(S'7SaxtQlIbU6GUJWz6F6HeA'
p422
I0
S'always good food, and a great selection of beer that will satisfy'
p423
tp424
a(g79
I11
S'a genuine find.'
p425
tp426
a(g31
I11
S'he actually suggested something completely different (mushroom mix).'
p427
tp428
a(g290
I5
S'mngmnt even came by to see how everything was, well, just awsome!!!!'
p429
tp430
a(g305
I2
S'there were only 2 other couples besides us in the place.'
p431
tp432
a(S'AgKf4xwR5CeMa5SzTSqmng'
p433
I0
S'food--- great    booze----great   service-- great  if you do not like this place , see a therapist.'
p434
tp435
a(g210
I7
S'i have held 2 company gatherings during various conventions without any problem.'
p436
tp437
a(g387
I8
S'the menu was creative and everything seemed appealing on the menu.'
p438
tp439
a(S'5da-9hR4LeMQ4cFygYABXQ'
p440
I5
S'the shepard pie was especially good and the sweet potato tater tots with a side of guinness bbq sauce was a hit with entire table.'
p441
tp442
a(g40
I4
S'i had the beef and bean and she had the bean.'
p443
tp444
a(g237
I10
S'the parmesan broth on the home-made ribbon pasta dish was indescribably good, and the rosemary caramel on the (outstanding) cheesecake was truly delicious.'
p445
tp446
a(S'8MT-jnwNj0kYnkBAD_y6TQ'
p447
I2
S'the prices of drinks are probably a bit higher here, so you may wish to get a base going before you find yourself here.'
p448
tp449
a(S'2LAMjZT0yB6lizf-ALspMw'
p450
I0
S"its really sad to hear john s. factor parking while rating the food at tarbell's."
p451
tp452
a(g221
I12
S'gee thanks.'
p453
tp454
a(S'6mSUt3z39vtdSwq7cgeAtg'
p455
I1
S'you are reading this and wanting to ridicule me for giving a high rating to a big box chain fast food joint.'
p456
tp457
a(g323
I1
S'walked in during the lunch hour and only 3 other tables were filled.'
p458
tp459
a(S'C7MpKQNq95KMaFeFMXHXjA'
p460
I1
S'got discount food tix from tix4tonight!'
p461
tp462
a(S'56ihVgKyF8BJx1pTGxnrUA'
p463
I1
S'no disappointments at all.'
p464
tp465
a(S'1LI3l0M1rZcSa2m28nr1WQ'
p466
I2
S'the service was very mediocre.'
p467
tp468
a(g7
I7
S'taking off a star because our waiter disappeared for a good long while after dropping off the dessert menu.'
p469
tp470
a(g145
I4
S'eclectic place, very old vegas.'
p471
tp472
a(g79
I5
S'(disclaimer: no warranty on over- stretched metaphors and aphorisms)  unfortunately "hot" doesn\'t like me anymore, but this was so good i elected to repair to the car for a shot of non-denominational pink bismuth solution in order that i should be able to consume more without immediate threat to self or community at large.'
p473
tp474
a(g450
I4
S'our service last night was outstanding....as usual!'
p475
tp476
a(S'BHowk_0tJTGlTvV_WlMb3g'
p477
I5
S'what kind of delivery is that????'
p478
tp479
a(g460
I5
S'able to compare online menu; as service so slow full 8$ more on our menu!!!!!'
p480
tp481
a(S'C8knIxOY3BFOIoRnKuHW6w'
p482
I4
S'and onions.'
p483
tp484
a(g4
I2
S"the food is good, but it's the feel of the place i really like."
p485
tp486
a(g407
I4
S'i wanted to like it but the bread was very similar to subway, very light in flavor and not too good.'
p487
tp488
a(S'-vhkE3iRHP4PuVxx3D-o9g'
p489
I2
S"we've eaten here about 5 times now, and only had one problem...eating everything."
p490
tp491
a(g274
I2
S'i recently took ten business associates there for a meeting, and i got nothing but compliments the next day on such an excellent choice of restaurant!'
p492
tp493
a(S'2dMdwLZeJ6RrJ3Ng51P-rg'
p494
I2
S'the food and the chefs were great.'
p495
tp496
a(g489
I1
S'but the view beats them all!'
p497
tp498
a(g126
I16
S'the carrot cake was good but not amazing.'
p499
tp500
a(g49
I15
S"she simply doesn't like it."
p501
tp502
a(S'0tn1FR6X5PqB_q8R30WJAA'
p503
I5
S'i had a much better steak dinner at "mon ami gabi" for far less money than i spent here.'
p504
tp505
a(S'0EUwsoR8sKcXUcq2KKA-oQ'
p506
I4
S'the side dishes had no flavor!'
p507
tp508
a(g55
I29
S"i totally recommend miu's cuisine."
p509
tp510
a(g34
I19
S'for dessert sis had the creme br\\u00fbl\\u00e9e and said it was just great, i did manage to get my spoon in there and taste it, and yummy was that good!'
p511
tp512
a(S'1y4HtevVgOjAdHApD7gljw'
p513
I0
S'i have tried to love this place many times over.'
p514
tp515
a(g195
I18
S'i read someone else really liked the key lime pie trifle, too.'
p516
tp517
a(S'26s6IlQcr6C-dacECQ_20Q'
p518
I5
S"i should have known better than to eat here when i saw they don't accept credit cards."
p519
tp520
a(g121
I0
S'the food is pretty good.'
p521
tp522
a(S'B51tVmQwzxXSJ7rmeORCCg'
p523
I1
S"it's small, family-run and inexpensive."
p524
tp525
a(S'7czedYKa1qmOpQV_MLjfHw'
p526
I2
S'the wine was good, and so was my meatball pizza.'
p527
tp528
a(g55
I1
S'when we arrived their was no other diners at the restaurant.'
p529
tp530
a(g34
I20
S'we received our discount using total rewards which was outstanding, and my great sister picked up the tab!'
p531
tp532
a(S'0fpoZOoduzYVq8BLtAhxdg'
p533
I8
S'dmo out'
p534
tp535
a(g237
I4
S'she was friendly, very knowledgeable about the menu (including the cocktails -- get the violet one!'
p536
tp537
a(S'222iWesn78uL7uKMTHtY_g'
p538
I0
S'our favorite restaurant.'
p539
tp540
a(S'3nwToZXKzxmAVaNhUDu_pA'
p541
I14
S'hubs loves marks famous spaghetti & meatballs and the grilled ny strip, i mean really, how can you go wrong!'
p542
tp543
a(g242
I2
S'the rib eye steak was cooked perfectly and my girlfriend reported the seafood platter was unbelievable.'
p544
tp545
a(S'8lvvax7VC2LaWYENwTw1lQ'
p546
I4
S"it's off the strip, but worth the drive or cab fare."
p547
tp548
a(S'911JNkIORvft5y3uLYT4Mw'
p549
I0
S'a charlotte classic hang out :)'
p550
tp551
a(g230
I8
S'there were few of the usual dishes i look for, so i was forced to step outside of my comfort zone.'
p552
tp553
a(S'4lW4UJ2el3SHIBcd32N7DA'
p554
I1
S'woo, road trips!'
p555
tp556
a(S'6bYVb3a5mEjADI0-zTgDrA'
p557
I1
S'the slices are huge, but thin (one is enough for me for a meal).'
p558
tp559
a(g46
I8
S"they're not kidding about sticking a slice of american cheese in there.)"
p560
tp561
a(g221
I6
S'i say "hi".'
p562
tp563
a(g4
I3
S'a lot of older regulars that the owner pals around with.'
p564
tp565
a(S'CJKwusJmRv7Iit6D0eMdWQ'
p566
I10
S"but its' sports bar alter-ego is definitively what pays the bills."
p567
tp568
a(S'0PQ8E0vCdw4ZHJmSNpcENA'
p569
I1
S'beautiful place and awesome menu.'
p570
tp571
a(S'7JIFj4B1DOYUFgcPokc0PQ'
p572
I3
S'stop by and give it a try.'
p573
tp574
a(g201
I2
S'initially the food was great, the service was ok. gradually the service went from ok to bad.'
p575
tp576
a(g64
I3
S'it was truly phenomenal.'
p577
tp578
a(g557
I6
S'by and large, it tastes fresh and is surprisingly not-heavy in your stomach.'
p579
tp580
a(g87
I4
S'they give you a good cup portion.'
p581
tp582
a(g22
I17
S'overall, this was a great meal.'
p583
tp584
a(g282
I7
S'this excellent buffet served up in their very comfortable, quiet (due to good acoustics) dining room is only $9.50 (srs.'
p585
tp586
a(g195
I17
S'it was so cool and delicious, i kept stealing bites from him.'
p587
tp588
a(g227
I1
S"i'd often stop in here before grocery shopping across the plaza to quench the munchies, shopping with the munchies is never a good idea."
p589
tp590
a(S'8wXl2nyx52gaISOI_zpUWA'
p591
I0
S'we stopped in here for a drink on a friday night.'
p592
tp593
a(S'4EnMpEDC3FwwLXB18EwBQg'
p594
I0
S'first off the food was great.'
p595
tp596
a(g49
I3
S'i had the linguine in white wine sauce, with fried calamari as an appetizer.'
p597
tp598
a(g170
I3
S'i might even be one of those ladies that burns incense and sage all over my house and tells people that they have an old soul.'
p599
tp600
a(g387
I5
S'tarbells did not do that.'
p601
tp602
a(g489
I4
S'our waiter was excellent, and they are very personable, with great stories to tell about the city.'
p603
tp604
a(g245
I13
S'i look forward to exploring more of the menu on a future visit.'
p605
tp606
a(g34
I17
S'very delicious and buttery tasting, even though they were on the small side.'
p607
tp608
a(S'3-qQnimhVeYHuzfXo1SqJw'
p609
I8
S'love, love, love.'
p610
tp611
a(g257
I4
S'after a couple of pints of guinness everything was alright with the world.'
p612
tp613
a(S'9Ht3LBL6bGdX2neZAvoy4Q'
p614
I2
S'we both had a chance to get up and walk around the restaurant and saw at least three open tables on the window with an amazing view of the strip, kind of disappointed about not getting one of those tables.'
p615
tp616
a(g31
I5
S'props to joel l. for his wonderful must/should order list.'
p617
tp618
a(S'73GNaRzVXTH75yaInmV2Qw'
p619
I14
S'the setting is like other chinese restaurants though.'
p620
tp621
a(g368
I11
S'finally, a really good chinese restaurant in tempe!'
p622
tp623
a(g164
I22
S'so that bumps up the price.'
p624
tp625
a(S'-XOiqy_b_N4RXiZ3M4Me3Q'
p626
I1
S'i was looking for a new place to put into rotation and dropped in here a few weeks back.'
p627
tp628
a(g594
I4
S'if you want fried fish go to an english pub.'
p629
tp630
a(S'-YkjJlyx1-sG4C6x7Xy3Iw'
p631
I1
S'the dough covering was not thin but with firm and chewy texture.'
p632
tp633
a(S'2OuBglt6bmpHci2AlZF5Hw'
p634
I2
S'the place was immaculate.'
p635
tp636
a(S'2jpxjYz-v11MvDsCs7Fz9A'
p637
I0
S'we heard good things about this place so we decided to try it.'
p638
tp639
a(S'2OOuuzyaPiDVuWn48jgZJw'
p640
I1
S'we both visited during restaurant week and had the salad with apples which was a wonderful start.'
p641
tp642
a(S'600-d4GtmcSW2WwT-pk2Sg'
p643
I3
S'wes is the waiter to ask for!'
p644
tp645
a(g132
I15
S'tap water.'
p646
tp647
a(g614
I1
S'when i made the reservation on open table, i told them that it was my birthday and that we wanted a table on the window, which we got, but not the best view of the strip.'
p648
tp649
a(g413
I13
S'and if you get a chance to dine outside on the patio take it!'
p650
tp651
a(g40
I6
S'the beef is nicely marinated.'
p652
tp653
a(S'1G4QBXO1f-e1PXdPIvNsMw'
p654
I2
S'the place is hip and cool.'
p655
tp656
a(g22
I14
S'not really bad, but my only complaint that i did share with them was that they did not list any prices on their liquor list.'
p657
tp658
a(S'7WNZNVPj-g5Z0_ABRgd0yg'
p659
I11
S'she seemed to have a real chip on her shoulder as her tone was most unpleasant throughout the evening .'
p660
tp661
a(g305
I8
S"i also didn't like that you had to use cash instead of paying with any method of payment you wanted."
p662
tp663
a(g164
I35
S'the tiramisu for dessert was scrummy too.'
p664
tp665
a(g52
I2
S'the interior decor consisted of a lot of dark wood characteristic of irish pubs.'
p666
tp667
a(g198
I2
S"not many restaurants in the valley or in the united states sell lung dishes (it's one of the un-translated menu items)."
p668
tp669
a(g40
I7
S'i also had the chicken taco and it was just perfect.'
p670
tp671
a(g198
I8
S'kind of reminded me of going to a chinese seven course dinner where each course is brought out separately.'
p672
tp673
a(g118
I7
S'they also picked up our wineries the next day which was nice of the wine buyer.'
p674
tp675
a(g195
I13
S'for dessert i had the mud pie semi fredo which apparently means half frozen and was as awesome as it sounds.'
p676
tp677
a(g631
I10
S'they enjoyed the two dishes very much as us chinese did.'
p678
tp679
a(g594
I7
S'i really hope this place makes it because bottom line, the food is good.'
p680
tp681
a(g237
I2
S'i think that first and foremost i have to rave about the service, which was stellar.'
p682
tp683
a(g323
I0
S'tried it out for lunch.'
p684
tp685
a(S'3QrypXOWpAlLd_RXuwCZoQ'
p686
I0
S'love, love love this restaurant.'
p687
tp688
a(S'8nLGzotQ5RduPqwUEI7uIw'
p689
I8
S'and a double-cut pork chop with butternut squash-thyme bread pudding...grilled scottish salmon on a crispy potato cake with molasses lime glaze.. several pizzas...for entrees.'
p690
tp691
a(g181
I0
S'what took us so long to find this place?'
p692
tp693
a(g390
I5
S'after ordering wine, nathan offered to pick our starters for us since we were unfamiliar with the menu.'
p694
tp695
a(g609
I7
S'waiter had fantastic wine pairings for each course.'
p696
tp697
a(S'4oLDJpoapJtZUB8Ue3j2iQ'
p698
I4
S'the waiters brought plenty of extra bread and seasoned butter.'
p699
tp700
a(g167
I7
S'i had the lamb roast pie which was phenomenal.'
p701
tp702
a(g198
I5
S'service was excellent.'
p703
tp704
a(g164
I29
S'now, i quite liked this at the time as i usually request no chips if it does come with, and liked that i could add whatever side i wanted on.'
p705
tp706
a(S'6zfN-4Co9pXHSQNwcJ03mQ'
p707
I1
S'it continues to be exceptional in regard to service and high quality.'
p708
tp709
a(g257
I2
S'it was very tasty.'
p710
tp711
a(g13
I2
S'they pile it on a bed of mashed potatoes with carrots, green beans, and onions.'
p712
tp713
a(g237
I12
S'just go!'
p714
tp715
a(S'9-iuO0MsNR_tkbxNQlfzSg'
p716
I5
S"i won't be going back to red rock buffet."
p717
tp718
a(S'A41quikjAeVkpW24ZFQrUQ'
p719
I7
S"we didn't seem to think it was right and when we called back to ask them to break it down for us, the girl said she was 20 dollars off."
p720
tp721
a(g126
I8
S'nathan was our waiter and he was awesome.'
p722
tp723
a(g609
I9
S'made me feel like i was in a great restaurant in nyc, except that the service was way better.'
p724
tp725
a(g154
I4
S'you came for the dirt cheap tsing tao beer (thank goodness they have it to help quell the heat).'
p726
tp727
a(g541
I12
S"i've also had the salmon & sea bass (a special that night), both worthy of a repeat visit!"
p728
tp729
a(g382
I1
S"we were in town and decided to try a nice place for wine and dessert, had a glass of red zinfandel (fruitful and easy to drink) and my boyfriend had the vanilla porter (thick body and true to it's name) and a glass of malbec ( tasty and extremely smooth, definitely suggested)."
p730
tp731
a(S'ByFoyAu5FAtE9kcyXT1L5g'
p732
I2
S'the decor is very nice, with lots of stainless steel tables and a nice seating area to eat-in.'
p733
tp734
a(g546
I3
S'the service is always attentive but not overbearing.'
p735
tp736
a(g262
I5
S'but you get what you pay for here.'
p737
tp738
a(S'4h1IZhnH3JwIYOJ3yiJGLw'
p739
I0
S'pricey but worth it!'
p740
tp741
a(g413
I6
S'and yes - a tip is appreciated.'
p742
tp743
a(g619
I13
S'i would like to go back and try more things so i can experience more authentic chinese.'
p744
tp745
a(g399
I2
S'never eat in this place ever!!!!'
p746
tp747
a(g274
I6
S'warning the deserts here are huge (yet amazing).'
p748
tp749
a(g40
I11
S"thank you nino's!"
p750
tp751
a(g732
I3
S'they have all the basic types of pizza, as well as some of the more unique (hawaiin pizza is great), but overall this is just a good ny-style thinner-crust pizza shop.'
p752
tp753
a(g614
I0
S'went to voodoo steak for my birthday because we were staying at the rio, got a small discount because we were part of the total rewards program at the hotel.'
p754
tp755
a(g619
I10
S'the menu was very helpful because it was marked by spiciness.'
p756
tp757
a(g466
I9
S"i wouldn't recommend this place at all."
p758
tp759
a(g489
I9
S"although it's a bit pricy, it's inline with other restaurants that don't have a view of this magnitude."
p760
tp761
a(g132
I11
S'my lobster bisque had a skin on it by the time it came out, my sidecar was average.'
p762
tp763
a(S'8nJ7FZp4XIHtliiydUtVhg'
p764
I1
S'we loved this place for the authentic indian chinese fusion food, however, that has been lost with the chef leaving.'
p765
tp766
a(S'3BYZ_smmMtQSBjjxUzr5aQ'
p767
I0
S"i'm not going to lie, my friend and i came here solely for the purpose of spotting some mlb players during spring training."
p768
tp769
a(g450
I3
S"one of their signature dishes and probably some of the best i've had in town!"
p770
tp771
a(S'3EdgCvMG-k_FnXW0cm_dQw'
p772
I2
S'the views are really great of the strip.'
p773
tp774
a(g55
I2
S'we were warmly greeted and our drink order taken.'
p775
tp776
a(g126
I18
S'however, i guess they ran out of it the night that we were there, so the manager came over and offered to substitute with other salad options.'
p777
tp778
a(g184
I13
S'i like bread pudding and this was good, but not great.'
p779
tp780
a(g132
I6
S'there was literally what looked like a gurney for moving people around and weird "voodoo" like decorations on the walls.'
p781
tp782
a(g376
I1
S'our waiter herb was awesome!!!!!'
p783
tp784
a(g257
I5
S'we would all go back because it was our kind of casual place.'
p785
tp786
a(S'9_X_WlQG-vAjz_L250nN9A'
p787
I4
S'this is the stupidest thing ever invented.'
p788
tp789
a(g368
I8
S'they speak english, mandarin and cantonese here.'
p790
tp791
a(S'7oSpnp2rDNddmXwGr1h9nQ'
p792
I1
S'les cr\\u00e8pes sont rapidement faites, mais particul\\u00e8rement bonnes!'
p793
tp794
a(S'6acTSWhdkRGjvMu25B4Mjw'
p795
I0
S'update!'
p796
tp797
a(S'2DenvsteG7TlgC_GxYTF0Q'
p798
I5
S'i made everyone at the table try it!'
p799
tp800
a(g95
I3
S'the size of this appetizer was disarmingly huge!'
p801
tp802
a(g145
I1
S'the food is always good.'
p803
tp804
a(S'05v3bRo4BiZMNRII_hJ0PA'
p805
I8
S'and what little meat there was, was chewy.'
p806
tp807
a(g447
I1
S"on weekend's they'll have a cover, but this is offset by the lack of a bathroom attendant, so the overhead expense for going out here is in line with the rest of downtown charlotte."
p808
tp809
a(g379
I4
S"the good folks at lenny's do not skimp on those."
p810
tp811
a(g67
I23
S'overall, a nice meal, a nice view, and other than my empty wallet, nothing substantial to complain about not look forward to for next time.'
p812
tp813
a(S'-ajXcCWLMa-CLQ0rOOtNYw'
p814
I0
S'everything i ate was slightly better than i expected.'
p815
tp816
a(S'2PJgwbN5eygvdJ5GzD-SWw'
p817
I2
S'i was pleasantly surprised that this restaurant is on the 50th floor of the hotel & had an amazing panoramic view over the strip & beyond.'
p818
tp819
a(g410
I9
S"they also get kudos for having a comfortable seating area inside, something most pizza shops of their calibre don't have the space to do."
p820
tp821
a(g262
I6
S"would i come back... yeah probably once i'm not ballin on a budget ."
p822
tp823
a(g237
I7
S'thank you, jillian!'
p824
tp825
a(g323
I11
S'the sweet potato fries were great!'
p826
tp827
a(S'-yqdZPKGfe5KZQT-plpC-Q'
p828
I1
S'the view is phenomenal.'
p829
tp830
a(g482
I2
S'they load it up right and have all the good fixens.'
p831
tp832
a(g619
I12
S'the food looked amazing when it came out and i tried everything i could.'
p833
tp834
a(g40
I5
S'it came loaded with lettuce and tomato...\n\nmy lunch was really flavorful.'
p835
tp836
a(g230
I7
S"the menu wasn't what i expected at all."
p837
tp838
a(g31
I6
S'my dining companion, paul d. ordered based upon that list, and i went with a recommendation from our server.'
p839
tp840
a(g767
I2
S'this place was packed!'
p841
tp842
a(g416
I4
S'shrimp is great.'
p843
tp844
a(S'-XbyzlFdMh5e0ndOGwsmpA'
p845
I2
S"this is not a stuffy stuck up location that treats you poorly if you don't order alcohol."
p846
tp847
a(g132
I14
S'we were also charged for water.'
p848
tp849
a(g227
I7
S"couldn't ask for more from a sandwich shop, other than slightly lower prices."
p850
tp851
a(g557
I4
S'i think it maybe runs you $3-4 bucks per slice.'
p852
tp853
a(g164
I11
S'the waiters were all really friendly and prompt, despite that at the beginning of the evening there was only one guy one and it was busy at 5pm.'
p854
tp855
a(S'8Spqqn02HVRktVCLnZY8Ag'
p856
I0
S'the waitress is suck.'
p857
tp858
a(g410
I1
S'one slice could be considered two normal slices so bring your appetite.'
p859
tp860
a(g101
I9
S'p.s.'
p861
tp862
a(g798
I0
S'was visiting from chicago and this place rivals any of the best irish pubs out there.'
p863
tp864
a(g164
I42
S'the pizzas are also on the average-portion size (again a good thing) which i noticed from other diners.'
p865
tp866
a(g87
I1
S'the fish and chips perfection.'
p867
tp868
a(g252
I1
S'me and my wife had the best steaks of our lives here t the voodoo lounge!'
p869
tp870
a(g201
I6
S"i don't think they were made fresh."
p871
tp872
a(S'-zShBEPM8A2HliiZ--KyYA'
p873
I2
S'also, we put our name on a wait list and were never called .'
p874
tp875
a(g268
I0
S'i have lived in anthem for the past 6 years and have never tried this place until now.'
p876
tp877
a(g157
I0
S'anybody who loves their thai food is probably a high-fructose suburbanite who has never been outside anthem.'
p878
tp879
a(g533
I5
S'little pricey came to a little over seven bones, but whatevs.'
p880
tp881
a(g368
I12
S"i'm predicting this will be one of my favorites for either dining out or getting food to-go if i'm in the mood for authentic chinese food!"
p882
tp883
a(S'B1ljVixT1lqOOfXAFeCFjQ'
p884
I1
S'i was recommended to try the stir-fried fish with chili and and the steamed fish with chili sauce.'
p885
tp886
a(g167
I2
S'my evaluation:\n\nfacility: good- really cool place, apparently the bar and most of the accoutrements were shipped in from ireland.'
p887
tp888
a(S'BuRawgaNC87Zqj3iaeucoA'
p889
I0
S'the food here is quite good.'
p890
tp891
a(g271
I3
S'we sat on the patio and they had a one man band playing and he was good.'
p892
tp893
a(g210
I3
S'the food can be "hit or miss".'
p894
tp895
a(g101
I8
S'i will be taking my clients/friends there a soon as possible.'
p896
tp897
a(g118
I1
S'i was meeting our wineries distrubutors sales reps and this is the restaurant they choose.'
p898
tp899
a(g84
I6
S'i ordered the carpaccio which came out in less than 3 minutes.'
p900
tp901
a(S'9PjLrVJGDWmTr_dvRqdUmQ'
p902
I1
S"i have liked everything i've tried but my favorites are the tom ka gai & gaeng kari."
p903
tp904
a(g164
I39
S'it hit the spot.'
p905
tp906
a(g271
I5
S'i went for the fried chicken.'
p907
tp908
a(g526
I5
S'the chocolate mousse was outstanding but the ice cream in the profiteroles was gelatinous.'
p909
tp910
a(g4
I1
S"i've only been a couple of times since it's across town for me,  but it made enough of an impression for me to want to go back whenever i'm that way."
p911
tp912
a(g221
I15
S'the carpaccio was the most boring carpaccio i have ever had -- not bad, not good: boring.'
p913
tp914
a(g873
I8
S"i literally wondered if i was drinking watered down bourbon because i didn't taste a tone of ginger or bourbon in my bourbon and ginger."
p915
tp916
a(g619
I7
S'i started looking at the menu and was looking for the eggrolls and edamame and all of the dishes i a used to but to my surprise none of those were on there.'
p917
tp918
a(g46
I5
S"if you're from a region that doesn't have jitb, it's your basic burger chain, only it serves breakfast all day, and the menu runs toward the daring side, with occasional forays into wth?"
p919
tp920
a(g61
I3
S'shrimp in the cocktail were at least 2 days old, not fresh steamed at all, like "rubber".'
p921
tp922
a(g271
I11
S'tasted like pumpkin pie with the graham cracker around the rim.'
p923
tp924
a(g477
I0
S'honestly many other chinese restaurants have much better food than this.'
p925
tp926
a(g58
I4
S'it was pretty dead and it was us and some elderly "cowboys" at the bar.'
p927
tp928
a(g619
I1
S'i ordered the moo shoo chicken and it was yummy.'
p929
tp930
a(g195
I1
S"place looks awesome inside and out.. we've been here 3 times since it reopened."
p931
tp932
a(g387
I7
S'for the positives, the service was great.'
p933
tp934
a(g399
I0
S'there is  a freakin nail in their bread.'
p935
tp936
a(S'ApL4LWLY0dC79U0zOK54EQ'
p937
I3
S"the kung po chicken is probably the best version of this dish i've ever had."
p938
tp939
a(g49
I17
S"we never received it - and couldn't get it in a timely fashion."
p940
tp941
a(g72
I0
S"this is my 4th thai food review and i'm just now realizing i have a problem."
p942
tp943
a(g242
I8
S"especially if you have points on your player's card!"
p944
tp945
a(g132
I7
S'we got in the elevator of horrors, which was not air conditioned.'
p946
tp947
a(g277
I3
S'then the setting, water stains on the silverware and bus boy that pour tap water into my glass with bottled water in it, i guess job training cost too much also.'
p948
tp949
a(g689
I12
S'excellent service (they also had a wonderful reisling by the glass -- hard to come by), streamlined, upscale surroundings -- all in all, a terrific dining experience.'
p950
tp951
a(g290
I4
S'and the service, very very impressive!'
p952
tp953
a(g221
I3
S"so i'll be the first to admit, i'm a male 30-something showing up alone on the saturday before mother's day, without a reservation and wearing a tshirt and jeans (nice ones though)."
p954
tp955
a(g626
I3
S"the service was ok, not really over excited to serve but i imagine that's because this place gets really packed so they stick to the business at hand."
p956
tp957
a(g609
I2
S'we will look no further... had the special - some snapper dish, as did my friend.'
p958
tp959
a(g34
I0
S'on the 50th floor with amazing views of the whole city !'
p960
tp961
a(g164
I16
S'it came as a burger.'
p962
tp963
a(g115
I1
S"tarbell's was so incredible on so many levels."
p964
tp965
a(g126
I11
S"i was the only one at the table who didn't order off of the restaurant week menu."
p966
tp967
a(g154
I10
S'but a table of us ate like royalty for very little coin.'
p968
tp969
a(g614
I3
S'other than that, the food was great, the lobster bisque was amazing, we both got the voodoo menage a trios (fillet, lobster tail & shrimp) which was also delicious.'
p970
tp971
a(g566
I7
S'bloody mary was meh, but it had a huge pickle spear as a garnish.'
p972
tp973
a(g135
I13
S'i just wish i had a good reason to go back and see them again.'
p974
tp975
a(S'9Kp3OD5ZXwIzUHH6S74Vog'
p976
I2
S"think 1960's supper club."
p977
tp978
a(g689
I13
S"we'd go back tomorrow."
p979
tp980
a(g221
I29
S'this place would probably be perfect for older rich people that have no real palate:  people that go to restaurants to improve their socioeconomic standing among their peers instead of discovering mind-blowing food.'
p981
tp982
a(g305
I7
S'i had the chicken tacos and they were ok (nothing to brag about).'
p983
tp984
a(S'2SL9lv92ePaP-ylwUAPPng'
p985
I0
S'lenny\'s is turning into my "go-to" sub shop - just overall good stuff, the guys running the shop are funny and seem to be happy to be making sammiches - they might be mentally ill in that regard.'
p986
tp987
a(g49
I7
S"first, the waiter took my wife's drink order."
p988
tp989
a(g184
I4
S'while perusing the menu we each ordered a gin martini; with a twist for me and dirty for my dad.'
p990
tp991
a(g43
I4
S'while the slices were okay, my non-gf friend and i were a bit disappointed, since, for $4 a slice, we expected pretty incredible pizza.'
p992
tp993
a(g164
I1
S'a little confusing that the italian branch of the dogs restaurant chain has gone all american on us, but trust me, it is a good thing.'
p994
tp995
a(g277
I11
S'then after dinner got even worse, i left my cell phone there so i figure i call the restaurant to ask them to hold it for me.'
p996
tp997
a(g13
I6
S"others i've gone with say the fresh fish dishes are excellent as well."
p998
tp999
a(g173
I4
S'it has the ambience (or lack thereof) that generally means delicious home style food.'
p1000
tp1001
a(g49
I28
S'and it felt as if we were annoying him by complaining.'
p1002
tp1003
a(g506
I5
S'2 stars for the view and the deco...but really?'
p1004
tp1005
a(g614
I5
S"after, we went up to the voodoo rooftop lounge, was nice that we didn't have to pay a cover because we had just had dinner."
p1006
tp1007
a(g19
I3
S'but for a 2 year old - serously - there is no way she would eat even $7.25 (half price) worth of food.'
p1008
tp1009
a(g902
I2
S"it's perfect every time & on top of the great food, the service is excellent."
p1010
tp1011
a(S'506xd1foWU0Ud4jCduBz4g'
p1012
I3
S"super hard, not soft at all\n- full of butter, crepe was basically deep fried in butter\n- super sweet and oily we didn't even taste the crepe!"
p1013
tp1014
a(g215
I0
S'very disappointing.'
p1015
tp1016
a(g43
I5
S'while the slices were large and the flavors were okay (albeit nothing special), the crust was soft and floppy (i prefer a crispy crust for thin-crust pizza) and kind of soggy from the sauce on top.'
p1017
tp1018
a(g795
I2
S'we were turned away when we came in at quarter to 8, thinking the were open till 8:30. the websites including this one all say 8:30 pm pt.'
p1019
tp1020
a(g207
I3
S'they had several specials as well as an extensive menus and the waiter said they could make things like fettucine alfredo.'
p1021
tp1022
a(g198
I6
S'the waitress answered all the questions we had regarding the menu.'
p1023
tp1024
a(g1012
I2
S"we were having juice across from this place and decided to go here for a plain crepe with apple and maple syrup here's what we got:\n\n- overly cooked, borderline burnt crepe."
p1025
tp1026
a(S'9RaRzZt4aomgnrD1XxZ60g'
p1027
I0
S'great service, good food, nice views - especially from the patio/deck, strong drinks.'
p1028
tp1029
a(g115
I13
S'this is one of our new favorites !!!'
p1030
tp1031
a(g37
I0
S'very disappointed.'
p1032
tp1033
a(g538
I4
S"can't decide what to have?"
p1034
tp1035
a(g16
I4
S'-my so ordered the shrimp lo mein and i stole a bite of the shrimp, and it had very good flavor, and he said that he enjoyed it.'
p1036
tp1037
a(g132
I5
S'there is a holding area for the elevator.'
p1038
tp1039
a(g210
I8
S'since i am tough on reviews, i cannot give rira "4 stars" but 3 stars is not fair.....let\'s call it 3.50 stars!!'
p1040
tp1041
a(g365
I7
S'try this place you will not be dissappointed!'
p1042
tp1043
a(g227
I6
S'(not sitting between paper, pre-sliced, a la other sandwich shops) bread is baked fresh.'
p1044
tp1045
a(g64
I5
S'i could have spent hours eating just that with a loaf of bread.'
p1046
tp1047
a(g28
I4
S'the owner is always in talking with customers, the bartenders are awesome, service is incredible.'
p1048
tp1049
a(S'7BQUgmcdX3p4kLwI31MVCQ'
p1050
I1
S'i have to say this was a wonderful meal.'
p1051
tp1052
a(g817
I0
S'i received some dining credits from hilton & noted that voodoo was on the list.'
p1053
tp1054
a(S'13VXiLU1IWao3MU-Fp3h6Q'
p1055
I11
S'i asked if they can charge me for mp of frozen instead of mp of fresh crawfish and all they did was give me a 10% discount off of the next visit...wth??????'
p1056
tp1057
a(g654
I4
S'great service too.'
p1058
tp1059
a(g792
I0
S'au coeur du march\\u00e9 jean talon, cette place incarne une bonne alte pour se rassasier avant de continuer ses courses de fruits et l\\u00e9gumes, ainsi que de produits artisanaux!'
p1060
tp1061
a(g227
I8
S'but then again, if prices get cut quality often gets cut along with it.'
p1062
tp1063
a(g55
I27
S'all are welcome.'
p1064
tp1065
a(g716
I1
S"it's pretty cheap for snow crab legs, but you get what you pay for - about an hour of hard work for a few bites of crab."
p1066
tp1067
a(g34
I9
S'came with horseradish, lemon and seafood sauce.'
p1068
tp1069
a(g221
I20
S"it had a sauce on it (which wasn't mentioned on the menu) that just looked and tasted like the most basic demi-glace sauce you could imagine -- at first i thought it was the steak bleeding off."
p1070
tp1071
a(S'0VAhNdU2VBOD7jVNhSeQ-g'
p1072
I0
S'the pizza is great.'
p1073
tp1074
a(g719
I10
S'we arrive 30 minutes after calling and the pizza had just come out and we were only waiting on the wings.'
p1075
tp1076
a(g873
I5
S'ever.'
p1077
tp1078
a(g31
I13
S"it had a very light sauce which was not greasy at all - something that i've found is a rarity in chinese food."
p1079
tp1080
a(g210
I2
S'obviously, i am a fan of this place for its beer selection and lively ambiance especially during the early part of the week.'
p1081
tp1082
a(g31
I15
S'now for the crazy part.'
p1083
tp1084
a(g463
I7
S'it was not too loud or otherwise intrusive and it added a festive air.'
p1085
tp1086
a(S'0s4cFr02v1OuIapNPvWmRg'
p1087
I4
S'always a hit with my family!'
p1088
tp1089
a(g19
I7
S'they get it together then either raise the price to rediculous or charge full price for kids, common rrb.'
p1090
tp1091
a(g227
I3
S'i got into several interesting conversations the employees.'
p1092
tp1093
a(S'3_EcIY97QfIOgmyD0D5Ciw'
p1094
I1
S'staff was friendly and the decar was nice.'
p1095
tp1096
a(S'9PuVzgOlfCyRq9FeOVR3Jg'
p1097
I0
S'cristian is the best, top notch for sure!!'
p1098
tp1099
a(g115
I2
S'not only was the food incredible but the service was outstanding as well.'
p1100
tp1101
a(g16
I3
S'-the moo goo gai pan was also very good, i would definitely order it again as the dish has always been one of my favorites.'
p1102
tp1103
a(S'9FY1fducJGYyrReudszc8g'
p1104
I0
S'funny how bad service can tip an already poor experience to the black list.'
p1105
tp1106
a(S'AFBkfPNtOjcJeSX09SHeow'
p1107
I0
S'just had an angus beef blue cheese burger with onions mushrooms and cheese that was out of this world.'
p1108
tp1109
a(S'64cY1Z-Kkccy_8Qy3_GZTQ'
p1110
I1
S'right down town and close to night life and the professional sector.'
p1111
tp1112
a(g22
I2
S'but thankfully, the fish here was haddock!'
p1113
tp1114
a(g686
I1
S'needed a place to hold my sons wedding reception.'
p1115
tp1116
a(g58
I9
S'i have never heard anything so vulgar in my life, and they were country & western songs.'
p1117
tp1118
a(g342
I3
S'i was impressed by how quickly after we ordered that our appetizers came out.'
p1119
tp1120
a(g67
I22
S'the bread had potential but was rock hard.'
p1121
tp1122
a(g224
I0
S'my girlfriend had braciole, which is a kind of beef roll with cheese inside of it cooked in a tomato sauce, and wow, was it fantastic.'
p1123
tp1124
a(g390
I1
S"(and maybe even to treat myself at the bar :) ...)\n\nwalked in on a thursday night around 8 pm and were seated at a nice 4-top table right in the center of the dining area, i'm difficult to please, and just by where they placed us, good vibes had already been given off."
p1125
tp1126
a(S'6NW4tCFM-WoVc2CsjENmfQ'
p1127
I0
S'the subs were a little more money than subway but worth the price.'
p1128
tp1129
a(g463
I3
S"the nosh plate is very good, i love the roasted beet salad, and the pork chops we had are among the best i've eaten in a restaurant."
p1130
tp1131
a(g503
I2
S'the service was bad, the waiter forgot simple utensils, and after waiting 5 minutes for him to bring me a spoon, i had to ask someone else.'
p1132
tp1133
a(g447
I5
S"she had no idea what it was but made it for me using the iphone recipe, injecting some uniqueness into my ri-ra's experience."
p1134
tp1135
a(g112
I2
S'and the onion soup was really good.'
p1136
tp1137
a(g67
I21
S"if you're a fine steakhouse, please use high quality produce, cheese, and balsamic."
p1138
tp1139
a(g22
I10
S"a little small for me (i'm a big guy), but perfect for her petite frame."
p1140
tp1141
a(g67
I7
S'everything tasted good, but nothing rocked my socks so much i would have to come back for it.'
p1142
tp1143
a(S'1xLMUHf8e6DEE8nYHgQlwg'
p1144
I2
S'a plus is a cold glass that was served alongside the cold bottle of beer.'
p1145
tp1146
a(g1110
I3
S'brunch here is amazing, as well as lunch and dinner.'
p1147
tp1148
a(g698
I6
S'service was quick and professional.'
p1149
tp1150
a(g285
I1
S"yes, it's that simple."
p1151
tp1152
a(S'-tTNHK9PRS70_45MXoFgsw'
p1153
I2
S'my meatloaf was excellent!'
p1154
tp1155
a(g805
I10
S'i mean, did he think i was an irish wolfhound who would gnaw on the bones???'
p1156
tp1157
a(S'8FwqFcl2Ez1NoovZr1XoHA'
p1158
I4
S"we grabbed jersey mike's on a sunday afternoon and took it home to eat."
p1159
tp1160
a(g271
I14
S"the name does not fit and may scare people off but don't be afraid."
p1161
tp1162
a(g22
I18
S'i come here for lunch all the time as i work down the street in uptown.'
p1163
tp1164
a(g37
I7
S"i ordered the 10oz fillet mignon with demiglaze and asked for 'extra sauce on the side', medium-rare with the truffled macc and cheese, and broccoli with garlic and oil for my two sides."
p1165
tp1166
a(g90
I1
S'a little higher class than the one on ray, as this place used to be a steakhouse.'
p1167
tp1168
a(g204
I3
S'we had to wait 10-15 minutes to get service.'
p1169
tp1170
a(g230
I11
S'we ordered the broiled eggplant, chicken lettuce wraps, and combination lo mein.'
p1171
tp1172
a(S'-_M3ZP6GMvz35CEjQcHQQw'
p1173
I4
S'she came out with orders and dropped the tray as she was handing out food.'
p1174
tp1175
a(g416
I1
S'it is getting better each time.'
p1176
tp1177
a(S'4702XOIzvJ6A_YKz7ZVLSg'
p1178
I1
S'best mussels that i have ever had.'
p1179
tp1180
a(g358
I3
S'took almost an hr to get the food.'
p1181
tp1182
a(g109
I2
S"if it's warm out, rest assured that there is no better place to grab a bite when you're out on a sunny day."
p1183
tp1184
a(g1158
I8
S"check out a jersey mike's near you!"
p1185
tp1186
a(g609
I4
S"service was exceptional... i've never had a restaurant call me the next day asking how everything was."
p1187
tp1188
a(g61
I0
S'what a let-down !!!'
p1189
tp1190
a(g541
I0
S"i have been coming to tarbell's for some years now."
p1191
tp1192
a(g637
I1
S'nice atmosphere inside and the wait staff very courtious.'
p1193
tp1194
a(S'4X5WkBXGqDF5ZUUT7KNYZQ'
p1195
I3
S'went for hh last week and really likes it.'
p1196
tp1197
a(g689
I6
S'three of us shared entrees, actually, so i also tasted a wonderful "scotch beef with buttermilk mashed and organic broccolini" and "barbecue chicken pizza with house-pulled mozzarella and grilled green onions".'
p1198
tp1199
a(g79
I7
S"i'll be back with more specifics on the dishes we tried, but highly recommend the glutinous rice balls with the sweet sesame paste dessert."
p1200
tp1201
a(g58
I6
S'the gentleman who was going to sing came up and wanted to check with us if it would be alright if he preformed, he explained his songs could be a little vulgar.'
p1202
tp1203
a(g506
I8
S"don't waist your time and money, this place needs chef robert irvine for a restaurant rescue and the present chef needs to go or chance his talents!"
p1204
tp1205
a(g1110
I2
S'i eat here often and i have yet to have a bad experience.'
p1206
tp1207
a(g164
I13
S"now, the dogs provide good grub with slightly 'different' dishes (the regular the dogs offers stuffed lamb's heart for example) but at affordable prices."
p1208
tp1209
a(g268
I3
S'also very clean.'
p1210
tp1211
a(g798
I4
S"my coffee came in it's own french press (which i will now buy for myself) and the breakfast sandwich had bangers, ham, cheese, bacon and egg on a toasted brioche bun."
p1212
tp1213
a(g79
I1
S"well, not necessarily but you at least have an inkling it's not going to be the typical american chinese menu."
p1214
tp1215
a(S'9fbO0-I5w4ku-76XWrVDXg'
p1216
I2
S"it's a very expensive place to eat, but hey let's face it, you get what you pay for and here, you're paying for perfection."
p1217
tp1218
a(S'2-MkK2D7cNVbqCPTDMC5Nw'
p1219
I6
S"you often get servers that are willing to tell you what is good and what is not on the menu while i don't think this place would have anything that was bad it was nice to know what the house specialties were"
p1220
tp1221
a(g101
I5
S'mashed potatoes were delish and so were the brussel sprouts.'
p1222
tp1223
a(g828
I3
S'the waiter we had was lovely!'
p1224
tp1225
a(g382
I8
S'side of mashed potatoes were well mashed and not runny at all, gravy is by request and has a charred, oak taste to it, delicious.'
p1226
tp1227
a(g34
I12
S'there were about 10 appetizers on the menu and it was a tough call which to order, they all sounded great.'
p1228
tp1229
a(g845
I3
S'we had an excellent meal with great service from steve wilson.'
p1230
tp1231
a(g450
I2
S'one of my all-time favorites there are the spaghetti and meatballs.'
p1232
tp1233
a(g390
I0
S"wow, tarbell's is unforgettable and will definitely be a go-to for special occasion dinners."
p1234
tp1235
a(g126
I20
S'two people at our table had the bolognese, but they said it was bland.'
p1236
tp1237
a(g61
I9
S'!'
p1238
tp1239
a(g126
I15
S'it was grilled to perfection, topped with a local molasses/lime/honey glaze and served on a crispy potato cake.'
p1240
tp1241
a(g689
I0
S"i'm really good at picking out scottsdale restaurants, i've decided."
p1242
tp1243
a(S'5lPNGR-JRlSPKPHdYprglA'
p1244
I2
S"they don't have much of variety on other food choices but if you are looking to get good fresh crab this is your place!"
p1245
tp1246
a(S'9k-goJAz5pgOOTLsjmE_Qw'
p1247
I0
S'worst service!!..'
p1248
tp1249
a(g40
I3
S'we both had tostada a la carte.'
p1250
tp1251
a(g318
I1
S'however, this is hands down the best thai food within 25 or 30 miles, and one of the eateries in anthem.'
p1252
tp1253
a(g937
I0
S"i've had 3 dishes in the two trips, so far, but each of them rank very highly on my lists."
p1254
tp1255
a(g371
I1
S'all of their menu items are delicious, but i highly recommend the gaeng kari and the orange chicken lunch special.'
p1256
tp1257
a(g572
I4
S"you won't be disappointed."
p1258
tp1259
a(g1012
I0
S'waste of our money!!'
p1260
tp1261
a(g106
I6
S'ranch was yummy and tasted homemade.'
p1262
tp1263
a(g506
I1
S'this place has a great view from las vegas and ok service, ..... but....\nthe aged 20oz steaks were tough and totally bland!'
p1264
tp1265
a(g22
I16
S'you would figure that a restaurant actually publish their prices (except for the really high end places which employ the snobby tactic of, "if you have to ask, you can\'t afford it" bs.)'
p1266
tp1267
a(g46
I4
S"hours are more limited than for other jitbs in the region, so check their web site before going -- but they're open when they say they'll be."
p1268
tp1269
a(g557
I5
S"it can be a teeny bit greasy, but i haven't minded so far."
p1270
tp1271
a(g626
I6
S"of course a couple other good things about this location is that if the weather is good there isn't a much better patio for eating then right there outside, out front of hearst tower."
p1272
tp1273
a(g43
I1
S'my one friend, who usually eats gluten-free, was being tested for celiac disease, so she was on a diet in which she had to eat a certain amount of carbs per day.'
p1274
tp1275
a(g609
I1
S'my mom has been living there for years, and we were desperately looking for something special among the chain restaurants and fast food places.'
p1276
tp1277
a(g115
I8
S'my husband and i just got back from our first trip to paris and i have been searching for anything that even comes close to authentic french creme br\\u00fbl\\u00e9e ..... and this was it !!!!!'
p1278
tp1279
a(g167
I6
S"the menu selection is not too vast, but it's decent."
p1280
tp1281
a(g237
I5
S'), and super attentive.'
p1282
tp1283
a(g390
I2
S'our server, nathan, knew just when to stop by, was able to answer all our questions, and was not pushy at all.'
p1284
tp1285
a(g387
I11
S'for entrees we ordered the halibut and the tars scotch beef.'
p1286
tp1287
a(g404
I0
S'came here for a late dinner.'
p1288
tp1289
a(g79
I0
S'when the menu includes "large intestine", you know it\'s got to be good.'
p1290
tp1291
a(g164
I25
S'nice.'
p1292
tp1293
a(g506
I6
S'400 dollar for a lousy steak dinner with a bottle of wine incl.'
p1294
tp1295
a(g148
I3
S'how can a place that makes salads to go be out of utensils?'
p1296
tp1297
a(g221
I1
S'underwhelmed and slightly offended would be the summary for my experience there.'
p1298
tp1299
a(g566
I0
S'with dave all the way (well, except for the fish part) on this dark, classy, leather-encrusted irish pub.'
p1300
tp1301
a(g566
I9
S"for me, ri ra's is a better place to hit off-hours with friends, all of us squished into a booth, talking about ulysses."
p1302
tp1303
a(g184
I16
S'the service was well-timed and we never felt rushed.'
p1304
tp1305
a(g1127
I3
S'what do you want to order!!!'
p1306
tp1307
a(g546
I0
S"i have been here a few times for dinner, and it's consistently good."
p1308
tp1309
a(g271
I9
S'i did not want desert so went for a pumpkin pie martini.'
p1310
tp1311
a(S'2Czl3yILhUw-jvJysKk6Ug'
p1312
I2
S'cubed ahi tuna and chick peas to start (sounded interesting.)'
p1313
tp1314
a(g164
I38
S'overall, yep, thumbs up from me.'
p1315
tp1316
a(g1055
I7
S'the worst thing about it was we were charged $10.99 for frozen crawfish.'
p1317
tp1318
a(g365
I2
S"the food is amazing the service is amazing and the overall customer service can't be touched."
p1319
tp1320
a(g164
I4
S"so one sunday i stopped by here for a lazy long sunday linner (lunch and dinner, do you think it'll catch on?)"
p1321
tp1322
a(S'5vkrX1Juu6qSS9a9q43XhA'
p1323
I0
S'anybody who gives this place less than 5 stars is crazy!'
p1324
tp1325
a(g67
I3
S"the service was solid, view was beautiful, and while the food wasn't memorable, it was really good."
p1326
tp1327
a(g634
I1
S"it's very small but really cozy and comfortable."
p1328
tp1329
a(g379
I1
S"they're such a nice escape from all the other chain sub restaurants, especially subway, which i'm growing to detest."
p1330
tp1331
a(g221
I11
S'i say "well, i\'m pretty hungry, can we do something about that" -- and only then does she bother to explain that the dining room is full but i could find myself a seat at the bar.'
p1332
tp1333
a(S'AYVOHxUDSqG_rta6IZyjMg'
p1334
I1
S'and finally, a place who can do sisig right !'
p1335
tp1336
a(S'8xS9xugGApxWJYnNwaDMXw'
p1337
I6
S'she really wanted us to have a good time.'
p1338
tp1339
a(g218
I0
S'great wings, three different styles and a myriad of different sauces and flavors.'
p1340
tp1341
a(g79
I3
S"every dish was excellent, absolutely exceptional in a totally positive way,  and i look forward to returning for more as soon as i've recovered from my foray to the szechuan side of the menu."
p1342
tp1343
a(g277
I12
S'well the hotel computer only wanted to know if i want a room and when i got the operator, she send me to restaurant reservation , they send me back to operator and round and round it took all of 35 minutes...35 !!!'
p1344
tp1345
a(g489
I3
S"good portion sizes, and the smells from other tables made me wonder what i'd missed!"
p1346
tp1347
a(g204
I7
S'the panag curry was overly flavored with mint and lacked little or no taste of coconut milk.'
p1348
tp1349
a(g290
I3
S'im truly almost speechless!!!!'
p1350
tp1351
a(g805
I14
S'thank god for the good beers to drown out my disgust.'
p1352
tp1353
a(g201
I1
S'i am a great fan of indo-chinese food, and hence we went here often, though this place is about a 40mile drive.'
p1354
tp1355
a(g494
I0
S'a near perfect meal.'
p1356
tp1357
a(g154
I1
S"inside, you'll find large family style tables and fluorescent lighting."
p1358
tp1359
a(g64
I6
S'my sister had the pan-seared scallops.'
p1360
tp1361
a(g67
I5
S'they have a nice deck where you can go out and lounge and take in the view.'
p1362
tp1363
a(g368
I9
S'one of the people in charge stopped by our table and chatted with us for a little, which was nice.'
p1364
tp1365
a(g184
I2
S'we were not disappointed!'
p1366
tp1367
a(g95
I2
S'after a great cocktail at the bar (love the atmosphere including the open kitchen -- very warm space with high energy), we sat and enjoyed the mussel app.'
p1368
tp1369
a(g195
I0
S'not too shabby!'
p1370
tp1371
a(g245
I9
S'also, if you go for the burger, you have to request it with the fried egg... the menu makes it seem like it will come with the egg automatically (and our did not).'
p1372
tp1373
a(S'0rCeOpNX9kAyCyrBepgLpw'
p1374
I3
S'plus they can make it spicy for you.'
p1375
tp1376
a(g7
I9
S'the ambiance was great, it was a quiet night and the music was pleasant - not too loud but audible.'
p1377
tp1378
a(g413
I9
S'the owners have a partner over there who does nothing but look for antique stuff for ambiance.'
p1379
tp1380
a(g95
I8
S'....but i felt bad for having such high expectations.'
p1381
tp1382
a(S'1dy9M9hzqKyjBOlPDdek8g'
p1383
I0
S'these guys are back and still great.'
p1384
tp1385
a(g215
I4
S'maybe people in anthem are dying for any thai so they think it is good.'
p1386
tp1387
a(g1144
I0
S'great green chilli burro enchilada style...like traditional mexican food here 50 years ago--and you can get it in a mini version, which is a normal portion.'
p1388
tp1389
a(g67
I12
S'this is fine dining prices but outback steakhouse quality dishes.'
p1390
tp1391
a(g526
I0
S"the first time we went to tarbell's was fantastic."
p1392
tp1393
a(g195
I16
S'it tasted just like the ice cream!'
p1394
tp1395
a(g230
I16
S"everyone seemed very friendly and grateful that we'd stopped in."
p1396
tp1397
a(g503
I3
S'btw, the place was not very busy.'
p1398
tp1399
a(g506
I11
S'what a waist of time and money!'
p1400
tp1401
a(g323
I8
S'served on top of a romaine lettuce leaf and roll.'
p1402
tp1403
a(g413
I0
S"i used to work at ri ra's and most of the time that generates a horrible review - however, i loved this place."
p1404
tp1405
a(g221
I9
S"-- clearly i'm trying to get noticed -- there isn't a crowd around me."
p1406
tp1407
a(g170
I5
S'i will worry about the quality of the food i am giving to my children.'
p1408
tp1409
a(g129
I3
S'the server clained it serving size is for 1-2.  she was absolutely wrong...was enough for 4-5 folks.'
p1410
tp1411
a(g67
I16
S'buyer beware.'
p1412
tp1413
a(g368
I4
S'each was a large portion of food, with a distinct flavor, and well seasoned.'
p1414
tp1415
a(S'8PRhFeNksbYq45ay0_XKYA'
p1416
I0
S'the view is extremely good, the wait service was excellent (thanks sam) its nice to have an engaging but not overbearing waiter.'
p1417
tp1418
a(g506
I3
S'the servers think they are doing you a favor and it seems like they all think what a sucker of a customer is coming in!'
p1419
tp1420
a(g305
I0
S'we decided to try this place because of the amount of good stars and reviews......big mistake!'
p1421
tp1422
a(g64
I2
S'my mom ordered the house-made ribbon pasta.'
p1423
tp1424
a(g787
I3
S'.25 for 8 min and you have to go to the thing remember your plate number and then go back to put the tag in your window.'
p1425
tp1426
a(g173
I5
S"in this area miu's does not disappoint; formica tables and cafeteria chairs lead way to a tempting tome of a menu filled with many delights."
p1427
tp1428
a(g413
I8
S'a little history about that bar that i learned while working there: everything downstairs is imported from ireland.'
p1429
tp1430
a(g10
I1
S'authentic chinese food!!!!'
p1431
tp1432
a(g37
I13
S'i wanted to express my thoughts to the waiter but does that really do anything other than make me look like a jerk?'
p1433
tp1434
a(S'BUhFbIoZx8cnUOGXBi2jLQ'
p1435
I1
S'i took my girlfriend there this past saturday evening for dinner (10/22/11).'
p1436
tp1437
a(g619
I4
S'i quickly found out that i have enjoyed eating very americanized chinese dishes with the sesame chicken and sweet and sour chicken.'
p1438
tp1439
a(g277
I1
S"in one word ugly, brown painted wall with a few wire voodoo figures, same old beat up chairs with stains on the fabric and wood that is all chewed up, i don't know who hired the designer , must have gone to home depot and asked for redecorating idea."
p1440
tp1441
a(g49
I19
S'because our waiter apparently went home for the night after taking our order.'
p1442
tp1443
a(g195
I9
S'i love desserts.'
p1444
tp1445
a(g40
I9
S'i love that!'
p1446
tp1447
a(g376
I2
S'and made our experience even better.. thanks herb.'
p1448
tp1449
a(g805
I11
S'i had to come home to eat something as i was still hungry (not having any meat for this meat-a-tarian is brutal)!'
p1450
tp1451
a(g58
I0
S'the oldest restaurant in scottsdale is something worth checking out.'
p1452
tp1453
a(g513
I2
g1238
tp1454
a(S'5oGhdsuHuiQXamWdhpiroQ'
p1455
I2
S'i thought 3 course (from a set menu) for \\u00a313.95 per person was a good deal.'
p1456
tp1457
a(g55
I19
S'they would have got four stars if they had brown rice.'
p1458
tp1459
a(g135
I8
S'third place goes to dietz and watson.'
p1460
tp1461
a(g221
I30
S"i'm sure chef tarbell is an excellent chef, but i'm under the impression he has had to dumb down his food because the well-heeled, stodgy clientele wouldn't be able to appreciate the real thing."
p1462
tp1463
a(g106
I4
S'i chose the fettucini alfredo as my side dish and it was good, 4 star.'
p1464
tp1465
a(g352
I2
S'not to mention a complete rip off.'
p1466
tp1467
a(g413
I2
S'the selection of import beer was good and the bartenders could make up some crazy concoctions.'
p1468
tp1469
a(g643
I0
S'great food, old vegas feel.'
p1470
tp1471
a(g626
I2
S'i was pleasantly surprised to find it much to the liking of a subway but refined and truly fresher ingredients.'
p1472
tp1473
a(S'-qPsbOKM477FEtisABFACQ'
p1474
I3
S'they had nothing else worth eating for the poor non-crab eater i went with.'
p1475
tp1476
a(g79
I16
S'open until 10pm.'
p1477
tp1478
a(g792
I2
S"l'endroit ne paye pas de mine."
p1479
tp1480
a(g31
I12
S'it was sooooo good!'
p1481
tp1482
a(g382
I3
S'the rosemary caramel sauce was thick and tasty but not overwhelmingly sweet at all, the cheesecake itself was thick and creamy, and the crust was perfectly baked, we loved it.'
p1483
tp1484
a(g1312
I3
S'and for my main, the vegetarian dish "made with love" as the menu stated - was indeed.'
p1485
tp1486
a(g46
I1
S'the restaurant is always clean and non-rowdy.'
p1487
tp1488
a(g323
I4
S'i ordered the crab salad sandwich, i asked what type of crab was used, and told blue crab, which is my favorite.'
p1489
tp1490
a(g204
I4
S'by the way, did i mention my husband and i were the only two people there?!'
p1491
tp1492
a(g126
I22
S"while i wasn't completely enamored with everything, our overall tarbell's experience was a good one, and i definitely want to return to try more menu items in the future."
p1493
tp1494
a(g22
I3
S'which is a mild and yummy fish, much like halibut.'
p1495
tp1496
a(g387
I3
S'although the restaurant was pretty empty, we were seated in the center of the room close to other diners.'
p1497
tp1498
a(g315
I1
S'i ordered the dry aged 20 oz ribeye medium rare and it was medium well to well.'
p1499
tp1500
a(g157
I5
S'both meals were given the official suburban american sugar-salt-fat-overload-treatment.'
p1501
tp1502
a(g873
I0
S"during my one visit (before a big rock concert), ri ra'swas crowded and loud while we were there."
p1503
tp1504
a(g31
I14
S"paul had a bit, and even though he's not a weirdo vegetarian, he liked it."
p1505
tp1506
a(g164
I41
S"it's probably a good thing i didn't leave stuffed, the new menu is fun."
p1507
tp1508
a(g13
I4
S"i've eaten it two nights in a row its so good."
p1509
tp1510
a(g148
I0
S'i just went through the line at the sandwich shop in the courtyard of the hearst tower.'
p1511
tp1512
a(g1012
I4
S"the cheapest crepe is $7 for the plain and if you want veggies or anything else it's $13."
p1513
tp1514
a(g689
I1
S'tarbell\'s uses locally grown organic produce & i like the statement on their menu "eat well and often" -- my sentiments exactly.'
p1515
tp1516
a(g204
I10
S'm.p.'
p1517
tp1518
a(g1216
I1
S'the seafood risotto is to die for, and my husband loved his pasta and sausage dish.'
p1519
tp1520
a(g87
I9
S'my date loved his hamburger.'
p1521
tp1522
a(g772
I0
S'we went here because we had a groupon for a buy 1 get one steak free.'
p1523
tp1524
a(g115
I0
S'let me just say it really takes an experience to move me to write a review for a business.'
p1525
tp1526
a(g34
I2
S"greeted by our hostess we were seated at the window with a great view just at sunset as we we're eating before the show."
p1527
tp1528
a(g126
I4
S"all of these are things that i've heard about tarbell's time and time again over the years."
p1529
tp1530
a(g195
I12
S'finally!'
p1531
tp1532
a(g109
I5
S"if you're out with family, the cafe provides a mishmash of children's toys to play with, so you can lounge and enjoy your food and drink (or join them)."
p1533
tp1534
a(g16
I1
S'the good:\n-the steamed dumplings were delicious.'
p1535
tp1536
a(g634
I4
S'on this trip i had the pad thai and it was excellent.'
p1537
tp1538
a(g382
I2
S'as we were trying to decide what to have for dessert, the manager came by and introduced himself, very friendly staff, and soon after we had a rosemary caramel cheesecake on the house!'
p1539
tp1540
a(g98
I8
S'they will get my business again, their subs are tasty, with quality ingredients, and they are committed to customer service.'
p1541
tp1542
a(g477
I6
S"because my car broke down i thought okay i'll give them another try, but exactly the same thing happens again."
p1543
tp1544
a(S'2Fj0XKVdpjLTw0Of5Wj1LQ'
p1545
I0
S'had a group of 20+ for a private party in the back room.'
p1546
tp1547
a(g245
I0
S"living in az for close to eight years, i've driven by pink pony more times than i can count... but prior to living here in az, i lived in atlanta, and the pink pony that resides in atlanta is a little bit different than this one."
p1548
tp1549
a(g7
I11
S"i wouldn't say it'd be date night-worthy (unless she's into sports), but great for a nice dinner out."
p1550
tp1551
a(g49
I27
S'was all he said.'
p1552
tp1553
a(S'6H2j1Pk6PEc2tdN18QK71Q'
p1554
I4
S'for almost $18 this should of at least been hot.'
p1555
tp1556
a(g828
I5
S'i had the french onion soup, filet, and we split two sides mac n cheese and the broccoli.'
p1557
tp1558
a(g101
I10
S'did i say that the food was yummy?'
p1559
tp1560
a(g195
I19
S"i'll try that next time for sure."
p1561
tp1562
a(g976
I3
S"still, they don't disappoint in the meat department."
p1563
tp1564
a(g379
I11
S'they also have a good selection of salads, as well as hot subs like philly cheesesteaks.'
p1565
tp1566
a(g1219
I4
S'although it was pricey the meal was delicious and it was worth it.'
p1567
tp1568
a(g242
I1
S"thanks to railroad pass' player's card, we tried the steakhouse at the pass - which was incredible."
p1569
tp1570
a(g274
I5
S'you really cant go wrong here.'
p1571
tp1572
a(g772
I6
S'i highly recommend making reservations.'
p1573
tp1574
a(g132
I16
S'if you want a view, hit this up at night for the club.'
p1575
tp1576
a(g889
I4
S'try the braised eggplant and cucumbers in garlic.'
p1577
tp1578
a(g466
I4
S'the loaded potato skins were delicious, though.'
p1579
tp1580
a(g1055
I1
S'before i went here for dinner, i had my husband call to see if they were serving frozen or fresh crawfish.'
p1581
tp1582
a(g631
I5
S'and there comes some serious culinary work.'
p1583
tp1584
a(g698
I3
S'my wife and kids ate pasta, all loved their dishes.'
p1585
tp1586
a(g1474
I0
S'went for the all-you-can-eat crab legs at the end of the summer and ate all i could.'
p1587
tp1588
a(g506
I2
S'we had better steaks at the black bear diner for much much less!'
p1589
tp1590
a(g31
I17
S"but paul's twice-fried pork was so good, i actually found myself enjoying pig!"
p1591
tp1592
a(g262
I1
S'yikes !!'
p1593
tp1594
a(g686
I5
S'the food was amazingly good, especially the calamari and the vodka penne were my favorites.'
p1595
tp1596
a(g1374
I4
S'orange chicken is the kids favorite.'
p1597
tp1598
a(g28
I3
S'the scallops are the best i have ever had.'
p1599
tp1600
a(g221
I19
S'it came out medium, it was kinda charred, and really tough for "35 day aged" hand-picked angus prime -- more like the consistency of medium london broil from safeway.'
p1601
tp1602
a(g31
I8
S'i tend to love hot and sour soup when i have a cold - the peppery vinegary goodness is perfect for curing the sniffles.'
p1603
tp1604
a(g10
I9
S"thank lord jackie chan for miu's!"
p1605
tp1606
a(g181
I1
S'the food is wonderful, the service is top drawer, and the atmosphere hits the exact right tone of hip.'
p1607
tp1608
a(g358
I4
S"servers are not even bothered to ask once they take the orders \nour server took wrong order and then had to replace the food\nserver didn't even know how to place the food on the table(slams the plates all the time), chewing gums."
p1609
tp1610
a(g410
I4
S'their baked chicken wings were to die for.'
p1611
tp1612
a(g55
I17
S'he enjoyed it .'
p1613
tp1614
a(g349
I1
S'had the finger sandwiches (chicken, pulled pork, and something else), chips and spinach dip, lobster cakes, and potato cakes.'
p1615
tp1616
a(g230
I5
S'once inside, the ambiance was strange.'
p1617
tp1618
a(g164
I30
S'but the portion was really, really quite small.'
p1619
tp1620
a(g55
I13
S'it would have been perfect if they did not cook it for as long as they did.'
p1621
tp1622
a(g450
I5
S'the place is indeed small.'
p1623
tp1624
a(g526
I3
S"mom's seafood chowder sounded like it would be full of mussels and there were hardly any."
p1625
tp1626
a(g245
I12
S'"niman ranch" bone-in ribeye to the salmon, scallops, grouper, and turkey pot pie and more... there really is something for everyone!'
p1627
tp1628
a(g40
I0
S'wow, for the price and quality, i am hooked.'
p1629
tp1630
a(g659
I14
S'everyone agreed that the food was lovely and reasonably priced but the service certainly left a lot to be desired.'
p1631
tp1632
a(g34
I10
S'not the toppings i would have preferred, however it was very tasty, and 10 out of 10 on that choice, my sister ordered the onion soup.'
p1633
tp1634
a(g245
I10
S'the burger was still awesome by the way, even without the egg!'
p1635
tp1636
a(g67
I10
S'truffle mac and cheese was also tasty.'
p1637
tp1638
a(g659
I1
S'i was particularly upset about the whole experience as\ni had booked the restaurant having read positive reviews online and on the recommendation of a number of friends.'
p1639
tp1640
a(g716
I2
S'all other food was not terrible, but not great either.'
p1641
tp1642
a(g1087
I0
S'i just love this place.'
p1643
tp1644
a(g170
I8
S'this may or may not be true for my future.'
p1645
tp1646
a(g358
I1
S'not great, but good.'
p1647
tp1648
a(g49
I29
S'mind you, we are not demanding customers.'
p1649
tp1650
a(g13
I1
S'the "scotch beef" (pot roast) is absolutely the best i\'ve ever had anywhere.'
p1651
tp1652
a(g49
I8
S'she only wanted water to start, a bottle of pana for the table.'
p1653
tp1654
a(g440
I4
S'the right of us all loved our meals.'
p1655
tp1656
a(g407
I7
S"with jersey mike's, i didn't get this."
p1657
tp1658
a(g164
I14
S'however, as a result the presentation is just a little...lacking.'
p1659
tp1660
a(g450
I6
S'reservations on the weekend are necessary well in advance.'
p1661
tp1662
a(g828
I0
S'this place was great on all of the above, service, food, and atmosphere.'
p1663
tp1664
a(g157
I11
S'we both agreed that we needed strong coffee to eradicate the syrupy sweet aftertaste in our mouths.'
p1665
tp1666
a(g46
I0
S'this jack in the box is a pleasant reminder of how jack in the box used to be, years ago, when fast food was pitched primarily as a wholesome family dinner, rather than as something to quell the "munchies."'
p1667
tp1668
a(g277
I4
S'then the food, well that is the tiniest and worse $48 fillet i have ever seen and the asparagus side dish was so tough and fibrous that only the first inch can be eaten, the rest would make a nice hammock cause it is tough enough to.'
p1669
tp1670
a(g503
I0
S'went here for dinner and primarily to catch the view on rooftop.'
p1671
tp1672
a(g609
I0
S'officially, the best place to eat in phoenix.'
p1673
tp1674
a(g245
I4
S"so, while i may not have visited in it's original condition, i can vouge for this latest version and can say that i'm a big fan... i met some girlfriends for drinks and dinner on a recent weeknight and we had a very positive experience."
p1675
tp1676
a(g1323
I3
S"i will love tarbell's  for life!"
p1677
tp1678
a(g805
I3
S'we ordered a bunch of appetizers, lots of beer, and then the entrees.'
p1679
tp1680
a(g382
I4
S'since the dessert was so good, we figured why not try out their steak.'
p1681
tp1682
a(g614
I4
S'they brought me cake with a candle for my birthday, service was good as well.'
p1683
tp1684
a(S'54ELz59pXUXbFd7i7k3wlw'
p1685
I1
S'we ate here october 19th at 6:00pm, the night my boyfriend proposed.'
p1686
tp1687
a(g271
I1
S'our first two choices looked good but too late for food it was music time.'
p1688
tp1689
a(g106
I5
S'salads didnt come with our meals which for $28 should have so 1 star for value in my opinion, but the salad was delish!'
p1690
tp1691
a(g358
I2
S'pros: \ngood food\n\ncons:\nhorrible service\nlate food.'
p1692
tp1693
a(g1685
I0
S'the view is beautiful, but the restaurant is not worth the money.'
p1694
tp1695
a(g25
I5
S"hey, now we're talkin'!"
p1696
tp1697
a(g230
I15
S'the service was a little slow, but not enough to make us feel neglected; just to dine at a relaxed pace.'
p1698
tp1699
a(g198
I9
S'my biggest negative is the price.'
p1700
tp1701
a(g87
I2
S'crust was flaky as it should.'
p1702
tp1703
a(g631
I6
S'we had\\uff1a\nappetizers:\nchengdu clear noodles\\uff08\\u6210\\u90fd\\u51c9\\u7c89\\uff09\nscallion pancakes\\u3000\\uff08\\u8471\\u6cb9\\u997c\\uff09\n\nmain courses:\nbraised duck with scallion\\uff08\\u4eac\\u8471\\u6252\\u9e2d\\uff09\nfire pot with pork intestine and hot sauce\\uff08\\u5e72\\u9505\\u80a5\\u80a0\\uff09\nsteam fish with pickled peppers in hunan style (\\u8dfa\\u6912\\u5168\\u9c7c\\uff09\ncelery fried with dry tofu and peppers (\\u5c0f\\u6912\\u9999\\u5e72\\u7092\\u82b9\\u83dc\\uff09\n\nthe braised duck with scallion\\uff08\\u4eac\\u8471\\u6252\\u9e2d\\uff09 and the steam fish with pickled peppers in hunan style (\\u8dfa\\u6912\\u5168\\u9c7c\\uff09 were really the highlights.'
p1704
tp1705
a(g184
I9
S'we also shared the soup of the day, tomato bisque, and the bacon candy salad, both of which were delightful.'
p1706
tp1707
a(g84
I13
S'not what i was expecting.'
p1708
tp1709
a(g1337
I0
S"when i walked into this place i felt like i was walking into my dad's favorite bar in my hometown."
p1710
tp1711
a(g450
I10
S'bon appetite!'
p1712
tp1713
a(g889
I1
S"the wait staff don't communicate well."
p1714
tp1715
a(g302
I0
S'my wife and i are newlyweds and decided to eat at sergios.'
p1716
tp1717
a(g323
I9
S'which was not toasted and a bit stale.'
p1718
tp1719
a(g297
I2
S'it all works really well, as does the homely and super relaxed feel of the dogs, and seadogs, so this is definitely yet another culinary hit for david ramsden, the owner.'
p1720
tp1721
a(g221
I31
S"that, or food network's ica is scripted and staged."
p1722
tp1723
a(g52
I5
S'the pimento cheeseburger i had was also very good!'
p1724
tp1725
a(g170
I7
S'they will play noncompetitive sports, wear hemp and i will have had a water birth with a midwife in my home - with sage burning again for a good vibe.'
p1726
tp1727
a(S'6eqb8j8FTcPs7fb2NU_q8Q'
p1728
I2
S"at least they they so stupid they under charged me.... at least that's a plus."
p1729
tp1730
a(g55
I22
S'the decor is of your typical chinese restaurant  d\\u00e9cor.'
p1731
tp1732
a(g4
I4
S'the owner and his wife are always there.'
p1733
tp1734
a(g170
I2
S"and as an old lady i hope to have a very deep voice, long, crazy hair and wear flowy skirts and ethnic jewelry and i'll be very zen."
p1735
tp1736
a(g262
I0
S'50 stories up !!'
p1737
tp1738
a(g55
I15
S'my friends shrimp with snow peas.'
p1739
tp1740
a(g129
I2
S'food portions were large.'
p1741
tp1742
a(g164
I28
S'again, i had to order a side of rocket and tomato salad as the steak came as was.'
p1743
tp1744
a(g67
I11
S"there is a 20% discount if you show your penn & teller tickets.. which you'll need because...\n\ncons: it's much too pricey for the quality!"
p1745
tp1746
a(g323
I7
S'the sandwich had a lot of crab that was in light sauce, fortnately not mayo.'
p1747
tp1748
a(g126
I10
S'he suggested a great bottle of wine for us also.'
p1749
tp1750
a(g358
I5
S'no etiquette at all.'
p1751
tp1752
a(g1455
I0
S'pizza express do the best dough balls and garlic bread ever, they get 4 stars for that alone!'
p1753
tp1754
a(g463
I4
S'the hamburger is amazing, too.'
p1755
tp1756
a(g195
I11
S'i was a little jealous but waited impatiently and snacked on the left over pizza.'
p1757
tp1758
a(g814
I1
S'the pepper-crusted steak was better than steaks i have had at many steakhouse in the valley.'
p1759
tp1760
a(g566
I2
S'and yup, something about the atmosphere here (and in most other pubs) puts me immediately at ease.'
p1761
tp1762
a(g37
I10
S'meat was dry and overcooked which is a huge negative for a steakhouse.'
p1763
tp1764
a(g828
I4
S'very attentive and friendly!'
p1765
tp1766
a(S'2M2P9rDIyYiwXd1TnEXtcA'
p1767
I4
S'more people should come here!'
p1768
tp1769
a(g34
I22
S'all in all, service was great, food just wonderful and view from the top was stellar!!!!'
p1770
tp1771
a(g55
I10
S'and my mates shrimp stir fried with green onions,dried chilli peppers and snow peas.'
p1772
tp1773
a(g533
I3
S'got wheat roll, dijon mustard, salami, swiss, some vegetables and banana peppers.'
p1774
tp1775
a(g164
I17
S'on a plate.'
p1776
tp1777
a(g132
I10
S"our server forgot my order of truffle mac and cheese and there weren't really truffles in it (they faked out on me when they finally brought it)."
p1778
tp1779
a(g541
I6
S'they always aim to please!'
p1780
tp1781
a(g230
I17
S"we mentioned we'd heard of them through yelp, and he laughed and said that he's already got a group of yelp regulars."
p1782
tp1783
a(g640
I0
S'we had a wonderful dinner here.'
p1784
tp1785
a(S'CH-FMfA_Xkl1_K1TWl1kGQ'
p1786
I0
S'the large employee guy with blonde hair was belligerent and trying to start fights with several us last night.'
p1787
tp1788
a(S'12QWWU4c75qqjarb7htmVA'
p1789
I0
S'amazing steakhouse at the top of the rio where there is a nightclub with a gorgeous view of the strip.'
p1790
tp1791
a(g230
I0
S'after all the hubub about this new chinese restaurant, my boyfriend and i knew we had to try it!'
p1792
tp1793
a(g619
I2
S'while most are giving it 5 stars, i am giving it 4 stars because there were not very many dishes that i could eat or wanted to eat.'
p1794
tp1795
a(g455
I2
S"but before you judge i want you to think about having late meetings, or a busy night where you're at work, then the gym, then off to meet friends."
p1796
tp1797
a(g221
I17
S'just all meat and parmigiano -- a little more olive oil and some simple dressed greens would have made that dish so much better.'
p1798
tp1799
a(S'66_bBhcbtpf4_CcMCftzUQ'
p1800
I4
S'i will definitely go again.'
p1801
tp1802
a(g342
I11
S'the ambiance is nice and was romantic in a booth.'
p1803
tp1804
a(g265
I1
S'of the dogs, it is also on hanover street, but is at street level and has wonderfully large windows to gaze out from (or longingly gaze into....).'
p1805
tp1806
a(g506
I9
S'i make better steaks than that at home on my bbq grill!'
p1807
tp1808
a(g34
I1
S"i've been here once before but appreciated it much more this time, the ride up in the open elevator was great."
p1809
tp1810
a(g541
I16
g1238
tp1811
a(g98
I2
S"the subs were still good, but it was disappointing and i sent my concern off to jersey mike's."
p1812
tp1813
a(g640
I10
S'overall it was a wonderful dinner.'
p1814
tp1815
a(g61
I7
S"don't get drawn in by the eye-candy."
p1816
tp1817
a(g489
I10
S'well done, rio!'
p1818
tp1819
a(g167
I11
S"we had creme br\\u00fbl\\u00e9e for dessert, which i wasn't crazy about."
p1820
tp1821
a(g16
I0
S"i'm on a mission to find a good chinese restaurant that is reasonably priced in chambana, and i was happy with south china restaurant."
p1822
tp1823
a(g221
I0
S"so i just came back from tarbell's."
p1824
tp1825
a(g221
I21
S"i don't eat potatoes, so i just asked for extra spinach."
p1826
tp1827
a(g237
I0
S'what a treat to go to a restaurant like this!!'
p1828
tp1829
a(g58
I3
S'one night i was there with some buddies.'
p1830
tp1831
a(g184
I19
S"i do like that tarbell's is a nice change of pace from most of the upscale restaurants in town that specialize in steak."
p1832
tp1833
a(g215
I6
S'we did take out and eat at pink pepper on bell.'
p1834
tp1835
a(g227
I2
S'service is always prompt, while still being very personable.'
p1836
tp1837
a(g342
I13
S"tarbell's is a great arizona restaurant that never changes which is why we love coming back there."
p1838
tp1839
a(g164
I0
S"when the moon hits your eye like a big american french fry, that's amoorreeeeee....\n\neh, what?"
p1840
tp1841
a(g87
I5
S'they do not need anything added to them.'
p1842
tp1843
a(g1554
I1
S'they told me it would be ready in 20 minutes so i made sure to be there at that time.'
p1844
tp1845
a(g164
I43
S"but if you're looking for an all-out epic feast, you might be left a little hungry..."
p1846
tp1847
a(g135
I3
S'got home to buckeye to learn there was no provolone on my sandwich.'
p1848
tp1849
a(g1312
I1
S'i love an open kitchen where patrons can play audience to rising cooking flames and hot dishes ready to be served.'
p1850
tp1851
a(g61
I2
S'once and done.'
p1852
tp1853
a(g118
I2
S'again, another restaurant in a strip mall.'
p1854
tp1855
a(g382
I9
S'overall, we loved it!'
p1856
tp1857
a(g129
I0
S'we ate dinner for thanksgiving.'
p1858
tp1859
a(g619
I11
S'i do not like spice so i made sure to stay away from the *.'
p1860
tp1861
a(g129
I5
S'the server looked like she was high or just a ditz!'
p1862
tp1863
a(g98
I4
S'she offered to treat my family to a sub dinner for our trouble.'
p1864
tp1865
a(g1173
I6
S"food isn't good either."
p1866
tp1867
a(g787
I0
S"i'm so glad they put a popeye's back in pittsburgh but way did they have to put it in oakland?."
p1868
tp1869
a(g164
I23
S"the burger was, i think, around \\u00a37 and add on chips for \\u00a32 and that's \\u00a310 for burger and chips."
p1870
tp1871
a(g55
I25
S'.'
p1872
tp1873
a(g84
I2
S'as a solo diner, it was obvious i was pegged as a "turn and burn".'
p1874
tp1875
a(g719
I12
S'asking us what we were waiting for and what our order was after telling him.'
p1876
tp1877
a(g64
I10
S"it was, by far, the juiciest, best prepared chicken dish i've ever had."
p1878
tp1879
a(g1800
I2
S'there was a nice gentleman playing piano and lots of wait staff.'
p1880
tp1881
a(g302
I4
S'our waiter reyes was on top of everything and suggested the canolis for desert, what an excellent pick.'
p1882
tp1883
a(g61
I5
S'the sausage on the pie was bland and nothing special.'
p1884
tp1885
a(g265
I2
S'it has less of the quirky stylings of the dogs, the tables and chairs all match here, however the food is equally good.'
p1886
tp1887
a(g22
I9
S'my wife had the guiness beef stew, which also was yummy.'
p1888
tp1889
a(g410
I8
S'prices aside, pizza sola knows how to make a pie.'
p1890
tp1891
a(g637
I8
S"this place didn't fit the bill."
p1892
tp1893
a(g224
I5
S'we got out for $50 each sans tip; you can easily go much higher if you order a couple bottles of wine and some of the pricier meat dishes, which approach the $30 range.'
p1894
tp1895
a(g1072
I1
S'late hours service is terribly slow.'
p1896
tp1897
a(g126
I7
S"upon walking into tarbell's, the hostess was incredibly friendly and welcoming and the atmosphere was warm and inviting while still being casual; my kind of place!"
p1898
tp1899
a(g566
I3
S'the game seemed to have them a bit frazzled, but you could also tell they were trying pretty hard.'
p1900
tp1901
a(g55
I30
S'perhaps they will serve brown rice in the future.'
p1902
tp1903
a(g132
I2
S'here are the issues.'
p1904
tp1905
a(g1055
I13
S"i'm going to continue to be faithful to boiling crab or hot n juicy."
p1906
tp1907
a(g262
I2
S'yes i will admit i have a fear with heights but after alot of drinks i made it up to the top.'
p1908
tp1909
a(g207
I7
S'the meals were also delicious although the salad plus the entree was too much food.'
p1910
tp1911
a(g382
I7
S'very tender and perfectly cooked.'
p1912
tp1913
a(g126
I24
S'let me know!'
p1914
tp1915
a(g538
I5
S'they let you order 1/2 orders!'
p1916
tp1917
a(g84
I15
S'because of the reputation and rave on line reviews i will tell myself, maybe i made lesser menu selections and will, when i am in phoenix later in the year go back and try again.'
p1918
tp1919
a(g640
I6
S'we asked the waiter to suggest a glass of wine and the wine he suggested went very well with the dish and was very enjoyable.'
p1920
tp1921
a(g227
I5
S'the meat is sliced to order.'
p1922
tp1923
a(g167
I9
S'my wife, who is picky, got the hot and smoky burger, which was great as well.'
p1924
tp1925
a(g937
I2
S'the salt & pepper pork chops are nearly perfect...fried to airy perfection lightly sweet then covered with salt and pepper (fried peppers) which make for a great combination..and yes, you will catch me chewing on the bones!'
p1926
tp1927
a(g164
I40
S'and we got to take our wine downstairs to underdogs after to mull a bit longer.'
p1928
tp1929
a(g489
I5
S'he made use laugh out loud three times!'
p1930
tp1931
a(g764
I0
S'chef has changed and so has the serving staff, and the quality of the dishes has drastically declined.'
p1932
tp1933
a(g460
I8
g1238
tp1934
a(g64
I0
S"my mother, sister and i had dinner here recently while out celebrating mother's day together."
p1935
tp1936
a(g72
I5
S'service is great and food is very reasonably prices and delish.'
p1937
tp1938
a(g271
I8
S'i have a happy belly.'
p1939
tp1940
a(g1474
I1
S"it's all a blur now - as it was the moment i used the wet nap."
p1941
tp1942
a(g10
I2
S'do not come here if you\'re looking for hokey and badly flavored "beef and broccoli"  bs.'
p1943
tp1944
a(g28
I5
S'very warm and welcoming atmosphere.'
p1945
tp1946
a(g1110
I5
S"go here and you won't regret it!"
p1947
tp1948
a(S'8n_SFFAyDa0q9H6Gikr2JQ'
p1949
I1
S"i wasn't really all that impressed."
p1950
tp1951
a(g884
I3
S'we also had a good dish that was thinly sliced potatoes and peppers.'
p1952
tp1953
a(g455
I4
S'jack in the box is the cure to this.'
p1954
tp1955
a(g40
I12
S'have told my husband, so...we will stop by one more time before heading back to the oc.'
p1956
tp1957
a(g129
I4
S'bottom line is that we had ordered a lot of food based on her recommendation.'
p1958
tp1959
a(g201
I10
S'since this is the only indo-chinese restaurant in the valley, clearly the owners got complacent, and there is not enough supervision.'
p1960
tp1961
a(g277
I5
S'my so call lobster thermidor was a total joke, i guess they decide what that is, no cognac in the sauce, no re bake in the shell with bread crumbs on top, and two tiny claw meat and the rest is crab!!!!'
p1962
tp1963
a(g365
I5
S'the cheese pizza is divine as well.'
p1964
tp1965
a(g265
I5
S'the food here is incredibly good value and of exceptional quality, i have eaten here a lot and have never had a bad experience.'
p1966
tp1967
a(g305
I6
S'my tongue had a burning sensation for a whole week.'
p1968
tp1969
a(g282
I4
S'next it was on to the salad bar, with lots of tasty things to put on your salad and to enjoy on the side, such as good cottage cheese.'
p1970
tp1971
a(g148
I4
S"and the worst part is that you don't know it until you already through the line and have paid."
p1972
tp1973
a(g739
I1
S'excellent food and service!'
p1974
tp1975
a(g118
I3
S'however, tarbells unlike michaels does a year round business.'
p1976
tp1977
a(g795
I4
S'we will go to touch of thai where they are so happy to see us.'
p1978
tp1979
a(g873
I12
S'i asked for a side of the curry sauce and i do not kid or exaggerate to say it is out of this world good.'
p1980
tp1981
a(g719
I9
S'they said 20 minutes.'
p1982
tp1983
a(g659
I10
S"on the whole the staff were friendly and helpful but there was a waitress with an aussie accent who most certainly shouldn't be in the service industry."
p1984
tp1985
a(g739
I3
S'out of the four of us no one had complaints...'
p1986
tp1987
a(g157
I10
S'thankfully, there is a starbucks in the mall across the street.'
p1988
tp1989
a(g460
I3
S'this time we were required to show our coupon to hostess and server before being seated or served.'
p1990
tp1991
a(g594
I5
S'the crab was a little pricey but they were huge crab legs, not your small little legs.'
p1992
tp1993
a(g634
I9
S'the service was also excellent.'
p1994
tp1995
a(g541
I5
S"they are always willing to  customize your entree by giving you a sampler of something if you can't decide between two items or change a side if you don't like what's offered."
p1996
tp1997
a(g184
I3
S'we arrived and were promptly seated.'
p1998
tp1999
a(g28
I7
S'one of my favorite places in town.'
p2000
tp2001
a(g413
I4
S"one hint: if you don't want to wait 30 minutes to get a drink from the bartender then snatch up a cocktail waitress and they'll get in bout 5 minutes."
p2002
tp2003
a(g245
I14
S"next time i'll try a different dessert though; the caramel apple upside-down cake wasn't all that... it was more like a simple spice cake; nothing special."
p2004
tp2005
a(g845
I5
S'the new york steak was excellent, as was the prime rib.'
p2006
tp2007
a(g902
I3
S'peter, the chef always makes a point of coming out & saying hi to us & they always make us feel at home.'
p2008
tp2009
a(g67
I20
S'ehh.'
p2010
tp2011
a(g873
I10
S'i got the brisket sandwich and fries.'
p2012
tp2013
a(g719
I0
S"i've eatenpizza sola before, and the one on the south side seems to have a well rounded staff who know what they are doing."
p2014
tp2015
a(g115
I11
S'not to mention when looking at the dessert menu my husband was asking how the bread pudding compared to the br\\u00fbl\\u00e9e.... and low and behold they brought some complimentary bread pudding for us .... which was also mouth watering .'
p2016
tp2017
a(g440
I3
S'two nights later, we came back for dinner.'
p2018
tp2019
a(g631
I2
S'the filling came to your bite with some surprisingly pleasant fragrance.'
p2020
tp2021
a(g19
I2
S'i could see a discount for the 11 year old, may even of been willing to pay full price.'
p2022
tp2023
a(g1055
I2
S'we were specifically told they were fresh and not frozen.'
p2024
tp2025
a(g98
I0
S'what can i say?'
p2026
tp2027
a(S'5A2DL0laWzTRL14icaS9nA'
p2028
I1
S'this place is terribly understaffed, on a friday night there should not be only 2 bartenders for a packed bar.'
p2029
tp2030
a(g873
I6
S'ending up eating at the bar.'
p2031
tp2032
a(g157
I2
S'this was the ultimate in sugary, saucy, syrupy grossness.'
p2033
tp2034
a(g19
I4
S"we won't go again till they fix that back to what it use to be."
p2035
tp2036
a(g37
I9
S'i asked for my side of sauce and they brought out an amount that still wasnt enough for the whole steak.....i gave up on the sauce.'
p2037
tp2038
a(g31
I2
S'there was literally not a single other car in the lot.'
p2039
tp2040
a(g554
I2
S'great customer service and great subs!'
p2041
tp2042
a(g198
I3
S'food quality is above average.'
p2043
tp2044
a(g195
I23
g1238
tp2045
a(g79
I17
S'be warned of easy-to-miss narrow driveway between buildings off north side of apache.'
p2046
tp2047
a(g101
I3
S'i had the scotch beef which was amazing.'
p2048
tp2049
a(g698
I2
S'absolute perfection.'
p2050
tp2051
a(g55
I11
S'ok i quite liked the mushroom stir fry they only negative would be too oily, and i think they could have added some other veggies just to make it more exciting and healthy but over all it was tastey and it was not over cooked.'
p2052
tp2053
a(g25
I4
S'load that baby up with onions too!'
p2054
tp2055
a(g538
I2
S'the chocolate mousse was like eating a dream.'
p2056
tp2057
a(g145
I5
S'one waiter names wes is exceptional!'
p2058
tp2059
a(g164
I36
S"but again, it's just a slice of tiramisu in a bowl that's slightly too small for it (much in the same way that if you ate it everyday, your jeans would start to be just that tad too tight)."
p2060
tp2061
a(g538
I3
S'the best!'
p2062
tp2063
a(g719
I1
S'east end on the other hand, are a little clueless on how this "ordering pizza" thing works.'
p2064
tp2065
a(g55
I5
S'so now we .'
p2066
tp2067
a(g413
I1
S'the food was always good quality and kitchen staff was awesome.'
p2068
tp2069
a(g489
I6
S'it is a bit of a wait for the tremendous food, though.'
p2070
tp2071
a(g221
I18
S'the steak i ordered medium-rare.'
p2072
tp2073
a(g115
I16
g1238
tp2074
a(g631
I7
S'the duck was tender with a source surprises you mouth full.'
p2075
tp2076
a(g207
I5
S'the meals came with salad or soup although you had to pay extra to upgrade to caesar salad.'
p2077
tp2078
a(g84
I11
S'the fresh noodles that i had to search through the broth were stuck together in one mass under a small pile of canned tomatoes, the accompanying spinach also lost somewhere in the broth.'
p2079
tp2080
a(g817
I6
S'for an entree i had the lamb chops and my friends had the scallops - while awaiting dinner tony offered us to take wine & go out on the deck to see the cityscape; the view was great!'
p2081
tp2082
a(g132
I1
S'the rio is not exactly known for their food and this is no exception, but will set you back at least $50.'
p2083
tp2084
a(g164
I2
S'after i saw jurgen d\'s review proclaiming that it had gone "all yanky" i was curious!'
p2085
tp2086
a(g58
I5
S'i guess they had live music that night.'
p2087
tp2088
a(g16
I7
S"the bad:\n-the service wasn't fantastic."
p2089
tp2090
a(g1554
I6
S'not worth it.'
p2091
tp2092
a(g7
I8
S"granted we were a bigger group, so maybe he didn't want to disturb us, but really we just wanted to get our desserts."
p2093
tp2094
a(g817
I8
S'dessert was chocolate cake for me - amazingly good as well!'
p2095
tp2096
a(g167
I0
S'went here for a birthday party.'
p2097
tp2098
a(g494
I1
S'our waiter was a bit of a jerk.'
p2099
tp2100
a(g245
I1
S'it happens to be a huge strip club!'
p2101
tp2102
a(g390
I3
S'the dinner was perfectly timed out, and he never made me feel rushed to finish a course.'
p2103
tp2104
a(g1312
I0
S"other than the sold out specials at our 7:30pm seating at tarbell's i was pleased with the restaurants' favorable aesthetic and crowd."
p2105
tp2106
a(g55
I21
S'the waitress is very friendly and attentive.'
p2107
tp2108
a(g1685
I6
S'we tipped him better then our waiter.'
p2109
tp2110
a(g1144
I1
S'very disappointed in the ground beef taco--meat blah, and a preformed taco shell that tasted like the boxed ones from the grocery store.'
p2111
tp2112
a(g1087
I2
S'i like that i can order my meal super spicy and my wife can be wimpy!'
p2113
tp2114
a(g460
I0
S'complete scam!!'
p2115
tp2116
a(S'1LMr7zwScKODvYABPNTzbw'
p2117
I5
S'i plan on returning several times in the next week.'
p2118
tp2119
a(g382
I5
S'we shared a steak medium rare which came out split for us without even having to request it to be split.'
p2120
tp2121
a(g1072
I3
S'gross.'
p2122
tp2123
a(g79
I12
S'service was friendly and helpful.'
p2124
tp2125
a(g732
I1
S'the stigma of chains aside, what a great neighborhood pizza shop.'
p2126
tp2127
a(g34
I3
S'we made reservations on the open table app and it was super easy.'
p2128
tp2129
a(g126
I2
S'"friendly staff!"'
p2130
tp2131
a(g828
I9
S"my steak was cooked perfect and we couldn't stop eating the mac n cheese!"
p2132
tp2133
a(g1
I2
S'my last meal before death penalty would be pepper steak and bread pudding.'
p2134
tp2135
a(g37
I8
S'meal came out without any sauce on the side and barely any on the meat.'
p2136
tp2137
a(g67
I18
S'my $13 salad i could have thrown together at home.'
p2138
tp2139
a(g1474
I4
S'leave those fools at home.'
p2140
tp2141
a(g518
I0
S'food was not good.'
p2142
tp2143
a(g1685
I5
S"the nicest person there was the photographer who was so kind and took our picture out on the patio, and to my surprise caught my boyfriend's proposal as well."
p2144
tp2145
a(g1055
I3
S'when we got there, we asked again and were told they did not have frozen crawfish.'
p2146
tp2147
a(g1728
I1
S"the food is good just don't expect any with a brain stem to help you out."
p2148
tp2149
a(g1767
I6
S';)'
p2150
tp2151
a(g95
I9
S"solid wasn't what i was expecting...i was expecting impressive, surprising, can't-get-enough."
p2152
tp2153
a(g533
I2
S'the weather was right, i was in a good mood and hungry.'
p2154
tp2155
a(g271
I10
S'holy hell this was good.'
p2156
tp2157
a(g10
I0
S'this... this is what this valley has been waiting for!'
p2158
tp2159
a(g271
I6
S'this was a great choice, the chicken was cooked perfect and full of flavor.'
p2160
tp2161
a(g739
I2
S'overlooks the strip and clean upscale restaurant...would definitely go back!'
p2162
tp2163
a(g637
I4
S'it was just ok. no seasonings or flavor.'
p2164
tp2165
a(g503
I1
S'the food was competently prepared and my rib-eye was good.'
p2166
tp2167
a(g719
I3
g1872
tp2168
a(g297
I1
S'the lighting and whiteness of this restaurant make it very attractive, as does the sweeping bar and signature pooch art adorning the back wall.'
p2169
tp2170
a(g387
I14
S'definitely would order the himachi crudo, both entrees, and the profiteroles again.'
p2171
tp2172
a(g817
I5
S'we picked steak tartare and lobster bisque for appetizers - the tartare rivaled any i have had in france and the bisque was amazing.'
p2173
tp2174
a(g22
I4
S'and haddock is what the best fish and chips are made from, especially in england.'
p2175
tp2176
a(g482
I0
S'man these are some good subs.'
p2177
tp2178
a(g173
I0
S'found this via phoenix food nerds (thanks!)'
p2179
tp2180
a(g55
I8
S'portion was ok actually, truth be told a lot better portion wise then some other restaurants.'
p2181
tp2182
a(g184
I18
S"there are quite a few places to spend a nice evening in phoenix and this is a good choice, but i wouldn't be clamoring to come back, either."
p2183
tp2184
a(g884
I2
S'both were excellent and both dishes were big enough for two people to share.'
p2185
tp2186
a(g631
I11
S'okay, in a nutshell, write down my list in chinese or english, one way or another.'
p2187
tp2188
a(g315
I3
S"ridiculous for the price and ambiance of this restaurant i wo.uld suggest go to the lounge and enjoy the view but definitely plan dinner elsewhere as this one won't get a second chance from this las vegas local."
p2189
tp2190
a(g1337
I5
S'the waitress was very attentive and took good care of us.'
p2191
tp2192
a(g184
I14
S'overall, we enjoyed this dinner very much.'
p2193
tp2194
a(g416
I6
S'i wish they had sausage to go with these shrimp  and crab boils.'
p2195
tp2196
a(g659
I9
S"another friend's main course didn't arrive due to a mistake made by the waiter but at least he received his pizza for free when he got it much later than everybody else."
p2197
tp2198
a(g365
I1
S'they do everything right.'
p2199
tp2200
a(g463
I5
S"no problem whatsoever with wait staff  - very good service each time from anthony and jeremy -- cheerful, knowledgeable about the food, and didn't miss a beat."
p2201
tp2202
a(g16
I6
S'we both left full and with enough leftovers for another meal (which we ate the next night).'
p2203
tp2204
a(g98
I5
S'that is obvious commitment to quality service.'
p2205
tp2206
a(g634
I5
S'my wife had a broccoli and chicken dish that she raved about.'
p2207
tp2208
a(g19
I0
S'the buffet itself is worth it for the all you can eat crab legs.'
p2209
tp2210
a(g1158
I7
S'might be little pricier then blimpie, but with it due to the over load of meat!'
p2211
tp2212
a(g342
I6
S'for the main course i had the pan-roasted chicken, the skin had the perfect crisp yet the chicken was so moist.'
p2213
tp2214
a.